###############################################################################
#
# IAR ELF Linker V7.80.4.12462/W32 for ARM                17/Sep/2022  13:52:15
# Copyright 2007-2017 IAR Systems AB.
#
#    Output file  =  KKHumanBody.out
#    Map file     =  
#        D:/simplicity studio5/s5/KKHumanBody/IAR ARM - Default/KKHumanBody.map
#    Command line =  
#        "D:/simplicity
#        studio5/s5/developer/sdks/gecko_sdk_suite/v3.1//protocol/zigbee/build/cbke-163k1-stub-library-cortexm3-iar-efr32mg21-rail/cbke-163k1-stub-library.a"
#        "D:/simplicity
#        studio5/s5/developer/sdks/gecko_sdk_suite/v3.1//protocol/zigbee/build/source-route-stub-library-cortexm3-iar-efr32mg21-rail/source-route-stub-library.a"
#        "D:/simplicity
#        studio5/s5/developer/sdks/gecko_sdk_suite/v3.1//protocol/zigbee/build/cbke-library-dsa-sign-stub-cortexm3-iar-efr32mg21-rail/cbke-library-dsa-sign-stub.a"
#        "D:/simplicity
#        studio5/s5/developer/sdks/gecko_sdk_suite/v3.1//protocol/zigbee/build/binding-table-library-cortexm3-iar-efr32mg21-rail/binding-table-library.a"
#        "D:/simplicity
#        studio5/s5/developer/sdks/gecko_sdk_suite/v3.1//protocol/zigbee/build/security-library-link-keys-stub-cortexm3-iar-efr32mg21-rail/security-library-link-keys-stub.a"
#        "D:/simplicity
#        studio5/s5/developer/sdks/gecko_sdk_suite/v3.1//protocol/zigbee/build/packet-validate-library-cortexm3-iar-efr32mg21-rail/packet-validate-library.a"
#        "D:/simplicity
#        studio5/s5/developer/sdks/gecko_sdk_suite/v3.1//protocol/zigbee/build/zigbee-pro-stack-cortexm3-iar-efr32mg21-rail/zigbee-pro-stack.a"
#        "D:/simplicity
#        studio5/s5/developer/sdks/gecko_sdk_suite/v3.1//protocol/zigbee/build/gp-stub-library-cortexm3-iar-efr32mg21-rail/gp-stub-library.a"
#        "D:/simplicity
#        studio5/s5/developer/sdks/gecko_sdk_suite/v3.1//protocol/zigbee/build/sim-eeprom2-to-nvm3-upgrade-stub-library-cortexm3-iar-efr32mg21-rail/sim-eeprom2-to-nvm3-upgrade-stub-library.a"
#        "D:/simplicity
#        studio5/s5/developer/sdks/gecko_sdk_suite/v3.1//platform/emdrv/nvm3/lib/libnvm3_CM33_iar.a"
#        "D:/simplicity
#        studio5/s5/developer/sdks/gecko_sdk_suite/v3.1//protocol/zigbee/build/multi-pan-stub-library-cortexm3-iar-efr32mg21-rail/multi-pan-stub-library.a"
#        "D:/simplicity
#        studio5/s5/developer/sdks/gecko_sdk_suite/v3.1//protocol/zigbee/build/multi-network-stub-library-cortexm3-iar-efr32mg21-rail/multi-network-stub-library.a"
#        "D:/simplicity
#        studio5/s5/developer/sdks/gecko_sdk_suite/v3.1//platform/radio/rail_lib/autogen/librail_release/librail_efr32xg21_iar_release.a"
#        "D:/simplicity
#        studio5/s5/developer/sdks/gecko_sdk_suite/v3.1//protocol/zigbee/build/zll-stub-library-cortexm3-iar-efr32mg21-rail/zll-stub-library.a"
#        "D:/simplicity
#        studio5/s5/developer/sdks/gecko_sdk_suite/v3.1//protocol/zigbee/build/hal-library-cortexm3-iar-efr32mg21-rail/hal-library.a"
#        "D:/simplicity
#        studio5/s5/developer/sdks/gecko_sdk_suite/v3.1//protocol/zigbee/build/cbke-library-dsa-verify-283k1-stub-cortexm3-iar-efr32mg21-rail/cbke-library-dsa-verify-283k1-stub.a"
#        "D:/simplicity
#        studio5/s5/developer/sdks/gecko_sdk_suite/v3.1//protocol/zigbee/build/end-device-bind-stub-library-cortexm3-iar-efr32mg21-rail/end-device-bind-stub-library.a"
#        "D:/simplicity
#        studio5/s5/developer/sdks/gecko_sdk_suite/v3.1//protocol/zigbee/build/cbke-283k1-stub-library-cortexm3-iar-efr32mg21-rail/cbke-283k1-stub-library.a"
#        "D:/simplicity
#        studio5/s5/developer/sdks/gecko_sdk_suite/v3.1//protocol/zigbee/build/debug-extended-stub-library-cortexm3-iar-efr32mg21-rail/debug-extended-stub-library.a"
#        "D:/simplicity
#        studio5/s5/developer/sdks/gecko_sdk_suite/v3.1//protocol/zigbee/build/debug-basic-stub-library-cortexm3-iar-efr32mg21-rail/debug-basic-stub-library.a"
#        "D:/simplicity
#        studio5/s5/developer/sdks/gecko_sdk_suite/v3.1//protocol/zigbee/build/mfglib-library-cortexm3-iar-efr32mg21-rail/mfglib-library.a"
#        "D:/simplicity
#        studio5/s5/developer/sdks/gecko_sdk_suite/v3.1//protocol/zigbee/build/cbke-library-dsa-verify-stub-cortexm3-iar-efr32mg21-rail/cbke-library-dsa-verify-stub.a"
#        "D:/simplicity
#        studio5/s5/developer/sdks/gecko_sdk_suite/v3.1//protocol/zigbee/build/cbke-stub-library-cortexm3-iar-efr32mg21-rail/cbke-stub-library.a"
#        "D:/simplicity
#        studio5/s5/developer/sdks/gecko_sdk_suite/v3.1//protocol/zigbee/build/install-code-library-cortexm3-iar-efr32mg21-rail/install-code-library.a"
#        "D:/simplicity
#        studio5/s5/developer/sdks/gecko_sdk_suite/v3.1//protocol/zigbee/build/zigbee-r22-support-stub-library-cortexm3-iar-efr32mg21-rail/zigbee-r22-support-stub-library.a"
#        ./zcl-framework-core/af-event.o ./zcl-framework-core/af-main-common.o
#        ./zcl-framework-core/af-main-soc.o ./zcl-framework-core/af-node.o
#        ./zcl-framework-core/af-security-common.o
#        ./zcl-framework-core/af-trust-center.o
#        ./zcl-framework-core/attribute-size.o
#        ./zcl-framework-core/attribute-storage.o
#        ./zcl-framework-core/attribute-table.o
#        ./zcl-framework-core/client-api.o ./zcl-framework-core/core-cli.o
#        ./zcl-framework-core/crypto-state.o ./zcl-framework-core/message.o
#        ./zcl-framework-core/multi-network.o
#        ./zcl-framework-core/network-cli.o ./zcl-framework-core/option-cli.o
#        ./zcl-framework-core/plugin-cli.o
#        ./zcl-framework-core/print-formatter.o ./zcl-framework-core/print.o
#        ./zcl-framework-core/process-cluster-message.o
#        ./zcl-framework-core/process-global-message.o
#        ./zcl-framework-core/security-cli.o
#        ./zcl-framework-core/service-discovery-common.o
#        ./zcl-framework-core/service-discovery-soc.o
#        ./zcl-framework-core/time-util.o ./zcl-framework-core/util.o
#        ./zcl-framework-core/zcl-cli.o ./zcl-framework-core/zdo-cli.o
#        ./update-tc-link-key/update-tc-link-key-cli.o
#        ./update-tc-link-key/update-tc-link-key.o
#        ./strong-random/strong-random-api.o ./simple-main/simple-main.o
#        ./serial/EFR32/serial.o ./serial/com.o ./scan-dispatch/scan-dispatch.o
#        ./reporting/reporting-cli.o
#        ./reporting/reporting-default-configuration.o ./reporting/reporting.o
#        ./packet-handoff/packet-handoff.o
#        ./ota-storage-simple-eeprom/ota-storage-eeprom-page-erase.o
#        ./ota-storage-simple-eeprom/ota-storage-eeprom-read-modify-write.o
#        ./ota-storage-simple-eeprom/ota-storage-eeprom.o
#        ./ota-storage-simple/ota-storage-simple.o
#        ./ota-storage-common/ota-storage-common-cli.o
#        ./ota-storage-common/ota-storage-common.o ./ota-common/ota-common.o
#        ./ota-client-policy/ota-client-policy.o ./ota-client/ota-client-cli.o
#        ./ota-client/ota-client-page-request.o
#        ./ota-client/ota-client-signature-verify.o ./ota-client/ota-client.o
#        ./ota-bootload/ota-bootload-cli.o ./ota-bootload/ota-bootload-soc.o
#        ./nvm3/EFR32/nvm3_default.o ./nvm3/EFR32/nvm3_hal_flash.o
#        ./nvm3/nvm3_lock.o ./network-steering/network-steering-cli.o
#        ./network-steering/network-steering-soc.o
#        ./network-steering/network-steering-v2.o
#        ./network-steering/network-steering.o ./mbedtls/EFR32/aes.o
#        ./mbedtls/EFR32/aes_aes.o ./mbedtls/EFR32/asn1parse.o
#        ./mbedtls/EFR32/asn1write.o ./mbedtls/EFR32/base64.o
#        ./mbedtls/EFR32/bignum.o ./mbedtls/EFR32/ccm.o
#        ./mbedtls/EFR32/chacha20.o ./mbedtls/EFR32/chachapoly.o
#        ./mbedtls/EFR32/cipher.o ./mbedtls/EFR32/cipher_wrap.o
#        ./mbedtls/EFR32/cmac.o ./mbedtls/EFR32/crypto_aes.o
#        ./mbedtls/EFR32/crypto_ecp.o ./mbedtls/EFR32/crypto_gcm.o
#        ./mbedtls/EFR32/crypto_management.o ./mbedtls/EFR32/cryptoacc_aes.o
#        ./mbedtls/EFR32/cryptoacc_ccm.o ./mbedtls/EFR32/cryptoacc_gcm.o
#        ./mbedtls/EFR32/cryptoacc_management.o ./mbedtls/EFR32/ctr_drbg.o
#        ./mbedtls/EFR32/des.o ./mbedtls/EFR32/ecdh.o ./mbedtls/EFR32/ecdsa.o
#        ./mbedtls/EFR32/ecjpake.o ./mbedtls/EFR32/ecp.o
#        ./mbedtls/EFR32/ecp_curves.o ./mbedtls/EFR32/entropy.o
#        ./mbedtls/EFR32/error.o ./mbedtls/EFR32/gcm.o
#        ./mbedtls/EFR32/mbedtls_cmac.o ./mbedtls/EFR32/mbedtls_ecdsa_ecdh.o
#        ./mbedtls/EFR32/mbedtls_sha.o ./mbedtls/EFR32/md.o
#        ./mbedtls/EFR32/md5.o ./mbedtls/EFR32/oid.o ./mbedtls/EFR32/pem.o
#        ./mbedtls/EFR32/pk.o ./mbedtls/EFR32/pk_wrap.o
#        ./mbedtls/EFR32/pkparse.o ./mbedtls/EFR32/platform_util.o
#        ./mbedtls/EFR32/poly1305.o ./mbedtls/EFR32/psa_crypto.o
#        ./mbedtls/EFR32/psa_crypto_driver_wrappers.o
#        ./mbedtls/EFR32/psa_crypto_slot_management.o
#        ./mbedtls/EFR32/psa_crypto_storage.o ./mbedtls/EFR32/rsa.o
#        ./mbedtls/EFR32/rsa_internal.o ./mbedtls/EFR32/se_aes.o
#        ./mbedtls/EFR32/se_ccm.o ./mbedtls/EFR32/se_gcm.o
#        ./mbedtls/EFR32/se_jpake.o ./mbedtls/EFR32/sha1.o
#        ./mbedtls/EFR32/sha256.o ./mbedtls/EFR32/sha512.o
#        ./mbedtls/EFR32/sl_entropy.o ./mbedtls/EFR32/sl_mbedtls.o
#        ./mbedtls/EFR32/sl_psa_its_nvm3.o ./mbedtls/EFR32/sl_se_management.o
#        ./mbedtls/EFR32/sl_se_manager.o
#        ./mbedtls/EFR32/sl_se_manager_attestation.o
#        ./mbedtls/EFR32/sl_se_manager_cipher.o
#        ./mbedtls/EFR32/sl_se_manager_entropy.o
#        ./mbedtls/EFR32/sl_se_manager_hash.o
#        ./mbedtls/EFR32/sl_se_manager_key_derivation.o
#        ./mbedtls/EFR32/sl_se_manager_key_handling.o
#        ./mbedtls/EFR32/sl_se_manager_signature.o
#        ./mbedtls/EFR32/sl_se_manager_util.o
#        ./mbedtls/EFR32/sli_crypto_transparent_driver_aead.o
#        ./mbedtls/EFR32/sli_crypto_transparent_driver_cipher.o
#        ./mbedtls/EFR32/sli_crypto_transparent_driver_hash.o
#        ./mbedtls/EFR32/sli_crypto_transparent_driver_mac.o
#        ./mbedtls/EFR32/sli_cryptoacc_transparent_driver_aead.o
#        ./mbedtls/EFR32/sli_cryptoacc_transparent_driver_cipher.o
#        ./mbedtls/EFR32/sli_cryptoacc_transparent_driver_hash.o
#        ./mbedtls/EFR32/sli_cryptoacc_transparent_driver_key_derivation.o
#        ./mbedtls/EFR32/sli_cryptoacc_transparent_driver_key_management.o
#        ./mbedtls/EFR32/sli_cryptoacc_transparent_driver_mac.o
#        ./mbedtls/EFR32/sli_cryptoacc_transparent_driver_signature.o
#        ./mbedtls/EFR32/sli_protocol_crypto_crypto.o
#        ./mbedtls/EFR32/sli_protocol_crypto_radioaes.o
#        ./mbedtls/EFR32/sli_psa_driver_init.o
#        ./mbedtls/EFR32/sli_radioaes_management.o
#        ./mbedtls/EFR32/sli_se_driver_aead.o
#        ./mbedtls/EFR32/sli_se_driver_builtin_keys.o
#        ./mbedtls/EFR32/sli_se_driver_cipher.o
#        ./mbedtls/EFR32/sli_se_driver_key_derivation.o
#        ./mbedtls/EFR32/sli_se_driver_key_management.o
#        ./mbedtls/EFR32/sli_se_driver_mac.o
#        ./mbedtls/EFR32/sli_se_driver_signature.o
#        ./mbedtls/EFR32/sli_se_opaque_driver_aead.o
#        ./mbedtls/EFR32/sli_se_opaque_driver_cipher.o
#        ./mbedtls/EFR32/sli_se_opaque_driver_mac.o
#        ./mbedtls/EFR32/sli_se_opaque_key_derivation.o
#        ./mbedtls/EFR32/sli_se_transparent_driver_aead.o
#        ./mbedtls/EFR32/sli_se_transparent_driver_cipher.o
#        ./mbedtls/EFR32/sli_se_transparent_driver_hash.o
#        ./mbedtls/EFR32/sli_se_transparent_driver_mac.o
#        ./mbedtls/EFR32/sli_se_transparent_key_derivation.o
#        ./mbedtls/EFR32/ssl_cache.o ./mbedtls/EFR32/ssl_ciphersuites.o
#        ./mbedtls/EFR32/ssl_cli.o ./mbedtls/EFR32/ssl_cookie.o
#        ./mbedtls/EFR32/ssl_msg.o ./mbedtls/EFR32/ssl_srv.o
#        ./mbedtls/EFR32/ssl_ticket.o ./mbedtls/EFR32/ssl_tls.o
#        ./mbedtls/EFR32/threading.o ./mbedtls/EFR32/x509.o
#        ./mbedtls/EFR32/x509_create.o ./mbedtls/EFR32/x509_crl.o
#        ./mbedtls/EFR32/x509_crt.o ./mbedtls/EFR32/x509_csr.o
#        ./mbedtls/EFR32/x509write_crt.o ./mbedtls/EFR32/x509write_csr.o
#        ./idle-sleep/idle-sleep-cli.o ./idle-sleep/idle-sleep-soc.o
#        ./idle-sleep/idle-sleep.o ./identify/identify-cli.o
#        ./identify/identify.o ./ias-zone-server/ias-zone-server-cli.o
#        ./ias-zone-server/ias-zone-server.o ./heartbeat/heartbeat.o
#        ./hal-library/EFR32_2/sl_hfxo_manager.o
#        ./hal-library/EFR32_2/sl_hfxo_manager_hal_s2.o
#        ./hal-library/EFR32/hal-config-gpio.o ./hal-library/EFR32/hal-config.o
#        ./hal-library/EFR32/sl_mpu.o ./hal-library/EFR32/sl_power_manager.o
#        ./hal-library/EFR32/sl_power_manager_debug.o
#        ./hal-library/EFR32/sl_power_manager_hal_s0_s1.o
#        ./hal-library/EFR32/sl_power_manager_hal_s2.o
#        ./hal-library/EFR32/sl_slist.o
#        ./generic-interrupt-control/EFR32/generic-interrupt-control-efr32.o
#        ./form-and-join/form-and-join-afv2.o
#        ./form-and-join/form-and-join-node-adapter.o
#        ./form-and-join/form-and-join.o
#        ./external-generated-files/bootloader-interface-app.o
#        ./external-generated-files/bootloader-interface.o
#        ./external-generated-files/btl_interface.o
#        ./external-generated-files/btl_interface_storage.o ./emlib/em_adc.o
#        ./emlib/em_cmu.o ./emlib/em_core.o ./emlib/em_cryotimer.o
#        ./emlib/em_emu.o ./emlib/em_eusart.o ./emlib/em_gpio.o
#        ./emlib/em_i2c.o ./emlib/em_ldma.o ./emlib/em_leuart.o
#        ./emlib/em_msc.o ./emlib/em_prs.o ./emlib/em_rmu.o ./emlib/em_rtcc.o
#        ./emlib/em_se.o ./emlib/em_system.o ./emlib/em_timer.o
#        ./emlib/em_usart.o ./emlib/em_wdog.o ./emlib/system_efr32mg21.o
#        ./emdrv/dmadrv.o ./emdrv/gpiointerrupt.o ./emdrv/sl_sleeptimer.o
#        ./emdrv/sl_sleeptimer_hal_rtcc.o ./emdrv/tempdrv.o ./emdrv/uartdrv.o
#        ./emdrv/ustimer.o ./ember-minimal-printf/ember-printf.o
#        ./efr32/assert-crash-handlers.o ./efr32/button.o
#        ./efr32/buzzer-efr32.o ./efr32/cstartup-common.o ./efr32/diagnostic.o
#        ./efr32/ext-device.o ./efr32/faults-v7m.o ./efr32/isr-stubs.o
#        ./efr32/led.o ./efr32/mfg-token.o ./efr32/micro-common.o
#        ./efr32/micro.o ./efr32/sleep-efm32.o ./efr32/token.o
#        ./eeprom/eeprom-afv2.o ./eeprom/eeprom-cli.o ./eeprom/eeprom.o
#        ./diagnostic-server/diagnostic-server-soc.o ./counters/counters-cli.o
#        ./counters/counters-ota.o ./counters/counters-soc.o
#        ./coexistence-stub/EFR32/coexistence-802154.o
#        ./coexistence-stub/EFR32/coulomb-counter-802154.o
#        ./ccm-encryption/ccm-star.o ./basic/basic.o
#        ./antenna-stub/antenna-stub.o ./address-table/address-table-cli.o
#        ./address-table/address-table.o ./00ikonke-app/tools/SEGGER_RTT.o
#        ./00ikonke-app/tools/SEGGER_RTT_ASM_ARMv7M.o
#        ./00ikonke-app/tools/SEGGER_RTT_Syscalls_IAR.o
#        ./00ikonke-app/tools/SEGGER_RTT_printf.o
#        ./00ikonke-app/tools/ikk-rtt.o ./00ikonke-app/general/ikk-cluster.o
#        ./00ikonke-app/general/ikk-command.o
#        ./00ikonke-app/general/ikk-common-utils.o
#        ./00ikonke-app/general/ikk-factory-test.o
#        ./00ikonke-app/general/ikk-network.o
#        ./00ikonke-app/general/ikk-opt-tunnel.o
#        ./00ikonke-app/general/ikk-ota.o ./00ikonke-app/general/ikk-sequence.o
#        ./00ikonke-app/general/ikk-tick-handler.o
#        ./00ikonke-app/driver/ikk-adc.o ./00ikonke-app/driver/ikk-button.o
#        ./00ikonke-app/driver/ikk-led.o ./00ikonke-app/driver/ikk-pwm.o
#        ./00ikonke-app/driver/ikk-relay.o ./00ikonke-app/driver/ikk-timer.o
#        ./00ikonke-app/driver/ikk-uart.o ./00ikonke-app/ikk-p824m.o
#        ./00ikonke-app/ikk-user.o ./KKTemplateCodeProject_callbacks.o
#        ./call-command-handler.o ./callback-stub.o ./command-interpreter2.o
#        ./crc.o ./ember-base-configuration.o ./ember-configuration.o
#        ./endian.o ./library.o ./mem-util.o ./random.o
#        ./security-address-cache.o ./stack-handler-stub.o ./token-def.o
#        ./zigbee-device-common.o ./zigbee-device-library.o
#        ./znet-bookkeeping.o ./znet-cli.o -o KKHumanBody.out --config
#        "D:/simplicity
#        studio5/s5/developer/sdks/gecko_sdk_suite/v3.1//platform/base/hal/micro/cortexm3/efm32/iar-cfg.icf"
#        --config_def LOCAL_STORAGE_BTL=1 --config_def FLASH_SIZE=786432
#        --config_def RAM_SIZE=65536 --config_def SIMEEPROM_SIZE=65536
#        --config_def LOCKBITS_IN_MAINFLASH_SIZE=8192 --config_def
#        EMBER_MALLOC_HEAP_SIZE=0 --config_def HEADER_SIZE=512 --config_def
#        PSSTORE_SIZE=0 --config_def LONGTOKEN_SIZE=0 --config_def
#        BTL_SIZE=16384 --no_wrap_diagnostics --entry __iar_program_start --map
#        "D:/simplicity studio5/s5/KKHumanBody/IAR ARM -
#        Default/KKHumanBody.map" --log_file "D:/simplicity
#        studio5/s5/KKHumanBody/IAR ARM - Default/KKHumanBody.log" --log
#        initialization,modules,sections,veneers --diag_suppress=Lp012
#        --redirect _Printf=_PrintfSmallNoMb --redirect _Scanf=_ScanfFullNoMb
#
###############################################################################

*******************************************************************************
*** MESSAGES
***

Warning[Lt009]: Inconsistent wchar_t size
            af-event.o and 311 other objects have wchar_t size 16 bits
            event-control.o(zigbee-pro-stack.a) and 148 other objects have wchar_t size 32 bits


*******************************************************************************
*** RUNTIME MODEL ATTRIBUTES
***

CppFlavor       = *
__SystemLibrary = DLib
__dlib_version  = 6


*******************************************************************************
*** PLACEMENT SUMMARY
***

"BAT": place at 0x00000000 { section BAT };
"HEADERS":
       place at start of [0x00004000-0x000041ff] { block HEADER_block };
"APP ro":
       place at start of [0x00004200-0x000bffff] { block APPRO_block };
"SIMEE&LOCKBITS":
       place at end of [0x00004200-0x000bffff] {
          zi section SIMEE, zi section INTERNAL_STORAGE, zi section LONGTOKEN,
          zi section PSSTORE, zi section LOCKBITS_IN_MAINFLASH };
"ResetHeap":
       place at start of [0x20000000-0x2000ffef] { block RESETHEAP };
"Guard":
       place in [from 0x20000000 to 0x2000ffef] { rw section GUARD_REGION };
"APP rw":
       place at end of [0x20000000-0x2000ffef] { block APPRW_block };
do not initialize {
   rw section .noinitlegacy, rw section .noinitnew, rw section CSTACK,
   rw section RESETINFO, rw section EMHEAP, zi section SIMEE,
   zi section INTERNAL_STORAGE, zi section LONGTOKEN, zi section PSSTORE,
   zi section LOCKBITS_IN_MAINFLASH };
initialize by copy { rw };

  Section                 Kind        Address     Size  Object
  -------                 ----        -------     ----  ------
"BAT":                                            0x54
  BAT                     uninit   0x00000000     0x54  cstartup-common.o [14]
                                 - 0x00000054     0x54

"HEADERS":                                        0xac
  HEADER_block                     0x00004000     0xac  <Block>
    AAT                   const    0x00004000     0xac  cstartup-common.o [14]
                                 - 0x000040ac     0xac

"APP ro":                                      0x3c19c
  APPRO_block                      0x00004200  0x3c19c  <Block>
    .intvec               const    0x00004200    0x134  startup_efr32mg21.o [60]
    Initializer bytes     const    0x00004334    0x135  <for .textrw-1>
    .text                          0x0000446c  0x344a2  <Block>
      .text               ro code  0x0000446c    0x186  af-event.o [46]
      .text               ro code  0x000045f2      0x2  zigbee-stack.o [73]
      .text               ro code  0x000045f4     0x5c  multi-network.o [46]
      .text               ro code  0x00004650    0x17c  scan-dispatch.o [40]
      .text               ro code  0x000047cc    0x25c  event-control.o [73]
      .text               ro code  0x00004a28     0x10  crypto-state.o [46]
      .text               ro code  0x00004a38    0xc70  attribute-storage.o [46]
      .text               ro code  0x000056a8    0x352  zigbee-scan.o [73]
      .text               ro code  0x000059fa      0xc  em_core.o [17]
      .text               ro code  0x00005a06      0x6  em_core.o [17]
      .text               ro code  0x00005a0c    0x12c  system-timer.o [60]
      .text               ro code  0x00005b38    0x1ec  assert-crash-handlers.o [14]
      .text               ro code  0x00005d24     0x1a  em_core.o [17]
      .text               ro code  0x00005d3e     0x3e  ember-configuration.o [1]
      .text               ro code  0x00005d7c      0x8  em_core.o [17]
      .text               ro code  0x00005d84     0xe2  callback-stub.o [1]
      .text               ro code  0x00005e66      0x2  zigbee-stack.o [73]
      .text               ro code  0x00005e68    0x860  util.o [46]
      .text               ro code  0x000066c8      0x6  ABImemclr.o [69]
      .text               ro code  0x000066ce      0x2  zigbee-stack.o [73]
      .text               ro code  0x000066d0     0x78  ABImemmove_unaligned.o [69]
      .text               ro code  0x00006748     0x62  znet-bookkeeping.o [1]
      .text               ro code  0x000067aa      0x2  zigbee-stack.o [73]
      .text               ro code  0x000067ac    0x2d0  ember-multi-network-stub.o [66]
      .text               ro code  0x00006a7c     0x94  micro-common.o [14]
      .text               ro code  0x00006b10    0x2f0  token.o [14]
      .text               ro code  0x00006e00    0x3fc  attribute-table.o [46]
      .text               ro code  0x000071fc    0x82c  buffer-management.o [73]
      .text               ro code  0x00007a28     0x2a  zll-stubs.o [75]
      .text               ro code  0x00007a52      0x2  zigbee-stack.o [73]
      .text               ro code  0x00007a54    0x3fc  mac-command.o [73]
      .text               ro code  0x00007e50   0x1858  association.o [73]
      .text               ro code  0x000096a8    0x578  af-main-soc.o [46]
      .text               ro code  0x00009c20    0x49c  scan.o [73]
      .text               ro code  0x0000a0bc    0xa28  beacon-handling.o [73]
      .text               ro code  0x0000aae4    0xa2c  upper-mac.o [73]
      .text               ro code  0x0000b510      0x2  symbol-timer.o [73]
      .text               ro code  0x0000b512      0x2  zigbee-stack.o [73]
      .text               ro code  0x0000b514    0x5a4  sl_sleeptimer.o [16]
      .text               ro code  0x0000bab8    0x264  ustimer.o [16]
      .text               ro code  0x0000bd1c    0x1c4  sleep-efm32.o [14]
      .text               ro code  0x0000bee0      0x8  em_core.o [17]
      .text               ro code  0x0000bee8      0x6  debug-stub.o [55]
      .text               ro code  0x0000beee      0x2  zigbee-stack.o [73]
      .text               ro code  0x0000bef0     0xe8  serial.o [42]
      .text               ro code  0x0000bfd8     0x4c  micro-internal.o [60]
      .text               ro code  0x0000c024     0x66  ABImemset.o [69]
      .text               ro code  0x0000c08a      0x2  zigbee-stack.o [73]
      .text               ro code  0x0000c08c    0x24c  client-api.o [46]
      .text               ro code  0x0000c2d8    0x354  eeprom.o [13]
      .text               ro code  0x0000c62c    0xaa0  reporting.o [39]
      .text               ro code  0x0000d0cc     0x3e  idle-sleep-soc.o [26]
      .text               ro code  0x0000d10a      0x2  startup_efr32mg21.o [60]
      .text               ro code  0x0000d10c    0x15c  counters-soc.o [11]
      .text               ro code  0x0000d268    0x258  ember-stack-common.o [73]
      .text               ro code  0x0000d4c0     0x74  print.o [46]
      .text               ro code  0x0000d534     0x60  process-cluster-message.o [46]
      .text               ro code  0x0000d594    0x4c4  process-global-message.o [46]
      .text               ro code  0x0000da58    0x158  message.o [46]
      .text               ro code  0x0000dbb0      0x6  ABImemclr4.o [69]
      .text               ro code  0x0000dbb6      0x2  startup_efr32mg21.o [60]
      .text               ro code  0x0000dbb8    0x730  af-main-common.o [46]
      .text               ro code  0x0000e2e8      0x8  time-util.o [46]
      .text               ro code  0x0000e2f0     0x40  print-formatter.o [46]
      .text               ro code  0x0000e330    0x404  address-table.o [73]
      .text               ro code  0x0000e734    0x4e0  binding-table.o [48]
      .text               ro code  0x0000ec14     0x76  ABImemcpy_unaligned.o [69]
      .text               ro code  0x0000ec8a      0x2  startup_efr32mg21.o [60]
      .text               ro code  0x0000ec8c   0x28c2  ikk-user.o [2]
      .text               ro code  0x0001154e      0x2  startup_efr32mg21.o [60]
      .text               ro code  0x00011550     0x20  heartbeat.o [23]
      .text               ro code  0x00011570      0xe  form-and-join-afv2.o [19]
      .text               ro code  0x0001157e      0x2  startup_efr32mg21.o [60]
      .text               ro code  0x00011580     0x64  network-steering-soc.o [28]
      .text               ro code  0x000115e4    0x5c8  ikk-cluster.o [4]
      .text               ro code  0x00011bac    0x100  update-tc-link-key.o [45]
      .text               ro code  0x00011cac     0x50  random.o [1]
      .text               ro code  0x00011cfc     0xa6  multi-pan-stub.o [67]
      .text               ro code  0x00011da2      0x2  startup_efr32mg21.o [60]
      .text               ro code  0x00011da4    0x550  mac-child.o [73]
      .text               ro code  0x000122f4    0x23c  zigbee-neighbor.o [73]
      .text               ro code  0x00012530      0x4  faults-v7m.o [14]
      .text               ro code  0x00012534    0x78c  em_cmu.o [17]
      .text               ro code  0x00012cc0     0xaa  em_wdog.o [17]
      .text               ro code  0x00012d6a      0x4  sim-eeprom2-to-nvm3-upgrade-stub.o [71]
      .text               ro code  0x00012d70   0x1c86  nvm3.o [62]
      .text               ro code  0x000149f8    0x236  mfg-token.o [14]
      .text               ro code  0x00014c2e      0x6  ember-base-configuration.o [1]
      .text               ro code  0x00014c34     0x6c  attribute-size.o [46]
      .text               ro code  0x00014ca0     0x42  strcmp_unaligned.o [69]
      .text               ro code  0x00014ce4    0x18e  buffer-queue.o [73]
      .text               ro code  0x00014e72    0x22e  mac-packet-header.o [73]
      .text               ro code  0x000150a0     0x32  enhanced-beacon-request-stub.o [74]
      .text               ro code  0x000150d4    0x3e4  child-handling.o [73]
      .text               ro code  0x000154b8   0x1b78  network.o [73]
      .text               ro code  0x00017030    0x958  zigbee-device-util.o [73]
      .text               ro code  0x00017988    0x188  token-cache.o [73]
      .text               ro code  0x00017b10    0x3b4  management.o [73]
      .text               ro code  0x00017ec4    0x496  leave.o [73]
      .text               ro code  0x0001835a      0x6  debug-extended-stub.o [56]
      .text               ro code  0x00018360    0x4f0  zigbee-stack.o [73]
      .text               ro code  0x00018850    0x42c  random-id.o [73]
      .text               ro code  0x00018c7c    0xf90  aps-security.o [73]
      .text               ro code  0x00019c0c    0x858  child.o [73]
      .text               ro code  0x0001a464      0xe  zdo-r22-stub.o [74]
      .text               ro code  0x0001a474    0x128  command.o [73]
      .text               ro code  0x0001a59c    0x210  child-aging.o [73]
      .text               ro code  0x0001a7ac      0x8  ember-multi-phy-stub.o [73]
      .text               ro code  0x0001a7b4      0xc  mac-header.o [73]
      .text               ro code  0x0001a7c0      0x8  mac-header.o [73]
      .text               ro code  0x0001a7c8    0x680  zigbee-packet-header.o [73]
      .text               ro code  0x0001ae48    0x6fc  indirect-queue.o [73]
      .text               ro code  0x0001b544    0x32e  retry.o [73]
      .text               ro code  0x0001b874    0x9b0  neighbor.o [73]
      .text               ro code  0x0001c224    0x6b4  trust-center-util.o [73]
      .text               ro code  0x0001c8d8     0x62  memcmp_unaligned.o [69]
      .text               ro code  0x0001c93c     0xb0  mac-flat-header.o [73]
      .text               ro code  0x0001c9ec     0x34  mac-info-element-parsing-stub.o [74]
      .text               ro code  0x0001ca20      0x8  packet-handoff.o [38]
      .text               ro code  0x0001ca28    0x280  mac-dispatch.o [73]
      .text               ro code  0x0001cca8    0x250  zigbee-upper-mac.o [73]
      .text               ro code  0x0001cef8   0x13aa  lower-mac-rail-802.15.4.o [73]
      .text               ro code  0x0001e2a4    0x790  aps-keys.o [73]
      .text               ro code  0x0001ea34     0x14  gp-stub.o [59]
      .text               ro code  0x0001ea48    0x5a4  micro.o [14]
      .text               ro code  0x0001efec     0xa4  cstartup-common.o [14]
      .text               ro code  0x0001f090    0x39c  diagnostic.o [14]
      .text               ro code  0x0001f42c     0x9c  security-address-cache.o [1]
      .text               ro code  0x0001f4c8    0x6ae  command-interpreter2.o [1]
      .text               ro code  0x0001fb78    0xb6c  application-support.o [73]
      .text               ro code  0x000206e4     0xf8  zigbee-dispatch.o [73]
      .text               ro code  0x000207dc    0x290  legacy-packet-buffer.o [73]
      .text               ro code  0x00020a6c    0x164  aes-mmo.o [73]
      .text               ro code  0x00020bd0     0x58  source-route-stub.o [72]
      .text               ro code  0x00020c28    0x33a  form-and-join.o [19]
      .text               ro code  0x00020f64     0x8c  multi-network.o [73]
      .text               ro code  0x00020ff0    0x3bc  mac-header.o [73]
      .text               ro code  0x000213ac    0x19e  sl_sleeptimer_hal_rtcc.o [16]
      .text               ro code  0x0002154c     0xee  I64DivMod.o [69]
      .text               ro code  0x0002163c     0x1e  U64Shr.o [69]
      .text               ro code  0x0002165c    0x1c6  em_timer.o [17]
      .text               ro code  0x00021824    0x3b0  sl_power_manager.o [21]
      .text               ro code  0x00021bd4    0x9c8  com.o [41]
      .text               ro code  0x0002259c     0x84  em_emu.o [17]
      .text               ro code  0x00022620     0x44  em_core.o [17]
      .text               ro code  0x00022664      0x4  em_core.o [17]
      .text               ro code  0x00022668    0x2b6  ember-printf.o [15]
      .text               ro code  0x00022920    0x18c  bootloader-interface-app.o [18]
      .text               ro code  0x00022aac     0x3a  ABImemset48.o [69]
      .text               ro code  0x00022ae8    0x104  reporting-default-configuration.o [39]
      .text               ro code  0x00022bec     0xd0  idle-sleep.o [26]
      .text               ro code  0x00022cbc     0x10  strong-random-api.o [44]
      .text               ro code  0x00022ccc    0xd04  ota-client.o [32]
      .text               ro code  0x000239d0    0x132  call-command-handler.o [1]
      .text               ro code  0x00023b04   0x1044  ikk-network.o [4]
      .text               ro code  0x00024b48    0x18c  zigbee-device-library.o [1]
      .text               ro code  0x00024cd4     0xaa  diagnostic-server-soc.o [12]
      .text               ro code  0x00024d80    0x444  service-discovery-common.o [46]
      .text               ro code  0x000251c4    0x5fc  network-steering.o [28]
      .text               ro code  0x000257c0    0x3fc  ias-zone-server.o [24]
      .text               ro code  0x00025bbc    0xa64  aps-retry.o [73]
      .text               ro code  0x00026620    0x2c8  ikk-rtt.o [5]
      .text               ro code  0x000268e8    0xa0c  ikk-opt-tunnel.o [4]
      .text               ro code  0x000272f4    0x954  ikk-factory-test.o [4]
      .text               ro code  0x00027c48    0x584  ikk-uart.o [3]
      .text               ro code  0x000281cc    0x312  ota-storage-simple.o [36]
      .text               ro code  0x000284e0    0x138  ikk-ota.o [4]
      .text               ro code  0x00028618    0x36c  ikk-led.o [3]
      .text               ro code  0x00028984     0x36  strlen.o [69]
      .text               ro code  0x000289bc    0x450  ikk-adc.o [3]
      .text               ro code  0x00028e0c    0x39c  ikk-command.o [4]
      .text               ro code  0x000291a8     0x26  crc.o [1]
      .text               ro code  0x000291d0    0x1d0  mfglib.o [65]
      .text               ro code  0x000293a0     0x3c  ikk-p824m.o [2]
      .text               ro code  0x000293dc      0x4  led.o [14]
      .text               ro code  0x000293e0     0x54  form-and-join-node-adapter.o [19]
      .text               ro code  0x00029434    0x2cc  ikk-common-utils.o [4]
      .text               ro code  0x00029700     0x70  faults-v7m.o [14]
      .text               ro code  0x00029770    0x144  system_efr32mg21.o [17]
      .text               ro code  0x000298b4    0x242  nvm3_page.o [62]
      .text               ro code  0x00029af8    0x1ba  nvm3_object.o [62]
      .text               ro code  0x00029cb4    0x242  nvm3_cache.o [62]
      .text               ro code  0x00029ef6     0x3e  nvm3_utils.o [62]
      .text               ro code  0x00029f34     0x10  nvm3_lock.o [29]
      .text               ro code  0x00029f44      0xc  nvm3_lock.o [29]
      .text               ro code  0x00029f50      0x2  nvm3_lock.o [29]
      .text               ro code  0x00029f52     0x18  sl_se_management.o [27]
      .text               ro code  0x00029f6c    0x11c  em_se.o [17]
      Veneer              ro code  0x0002a088      0x8  - Linker created -
      .text               ro code  0x0002a090     0x68  flash.o [60]
      .text               ro code  0x0002a0f8    0x5cc  route-table.o [73]
      .text               ro code  0x0002a6c4    0x254  broadcast.o [73]
      .text               ro code  0x0002a918     0xa0  unicast-table.o [73]
      .text               ro code  0x0002a9b8    0x456  crypto.o [73]
      .text               ro code  0x0002ae10    0x248  store-forward.o [73]
      .text               ro code  0x0002b058    0x5e4  aps-encryption.o [73]
      .text               ro code  0x0002b63c    0x358  jit.o [73]
      .text               ro code  0x0002b994    0x832  route-discovery.o [73]
      .text               ro code  0x0002c1c8    0x118  zigbee-mac-header.o [73]
      .text               ro code  0x0002c2e0    0x2d0  packet-validate.o [68]
      .text               ro code  0x0002c5b0    0x17c  route-error.o [73]
      .text               ro code  0x0002c72c    0x428  neighbor-exchange.o [73]
      .text               ro code  0x0002cb54    0xb3c  zigbee-device.o [73]
      .text               ro code  0x0002d690      0x8  end-device-bind-stub.o [58]
      .text               ro code  0x0002d698     0x54  af-trust-center.o [46]
      .text               ro code  0x0002d6ec      0x4  debug-platform-stub.o [55]
      .text               ro code  0x0002d6f0     0x94  ember-library.o [73]
      .text               ro code  0x0002d784    0x48a  rail_rf.o [63]
      .text               ro code  0x0002dc10     0x18  eui64.o [73]
      .text               ro code  0x0002dc28     0x12  phy-util.o [73]
      .text               ro code  0x0002dc3c    0x126  multi-pan-common.o [67]
      .text               ro code  0x0002dd62      0x6  cbke-crypto-engine-163k1-stub.o [49]
      .text               ro code  0x0002dd68      0x6  cbke-crypto-engine-283k1-stub.o [50]
      .text               ro code  0x0002dd6e      0xe  cbke-crypto-engine-stub.o [54]
      .text               ro code  0x0002dd7c     0x58  micro-common-internal.o [60]
      .text               ro code  0x0002ddd4     0x6c  install-code-tokens.o [61]
      .text               ro code  0x0002de40    0x548  aps-keys-transient.o [73]
      .text               ro code  0x0002e388     0x62  hmac.o [73]
      .text               ro code  0x0002e3ea     0x12  aps-keys-full-stub.o [70]
      .text               ro code  0x0002e3fc     0x88  aes-efm32.o [73]
      .text               ro code  0x0002e484      0x2  ember-duty-cycle-stub.o [73]
      .text               ro code  0x0002e488     0x22  I64Shl.o [69]
      .text               ro code  0x0002e4aa     0x10  coexistence-802154.o [10]
      .text               ro code  0x0002e4bc    0x18c  rail_singleprotocol.o [63]
      .text               ro code  0x0002e648     0xe0  hal-config.o [21]
      .text               ro code  0x0002e728     0xd0  rail_tx.o [63]
      .text               ro code  0x0002e7f8    0x194  rail_ieee802154.o [63]
      .text               ro code  0x0002e98c     0xe4  rail_data.o [63]
      .text               ro code  0x0002ea70     0x96  rail_calibration.o [63]
      .text               ro code  0x0002eb06      0x8  rail_timer.o [63]
      .text               ro code  0x0002eb10     0x34  antenna-stub.o [7]
      .text               ro code  0x0002eb44     0xb0  rail_autoack.o [63]
      .text               ro code  0x0002ebf4     0x3a  rail_rx.o [63]
      .text               ro code  0x0002ec2e     0x1c  rail_rssi.o [63]
      .text               ro code  0x0002ec4c     0x70  security-config-mfg.o [73]
      .text               ro code  0x0002ecbc     0xf8  sl_mpu.o [21]
      .text               ro code  0x0002edb4     0x1c  em_system.o [17]
      .text               ro code  0x0002edd0     0xde  sl_hfxo_manager.o [22]
      .text               ro code  0x0002eeb0    0x1a0  tempdrv.o [16]
      .text               ro code  0x0002f050    0x2d0  rail_power_manager.o [63]
      .text               ro code  0x0002f320     0x1c  pa_conversions_efr32.o [63]
      .text               ro code  0x0002f33c     0x1c  em_rmu.o [17]
      .text               ro code  0x0002f358     0x1c  core-cli.o [46]
      .text               ro code  0x0002f374      0x4  cbke-crypto-engine-dsa-sign-stub.o [51]
      .text               ro code  0x0002f378     0xe4  em_rtcc.o [17]
      .text               ro code  0x0002f45c      0x2  I64DivZer.o [69]
      .text               ro code  0x0002f45e      0x8  em_core.o [17]
      .text               ro code  0x0002f466      0x6  em_core.o [17]
      .text               ro code  0x0002f46c     0x10  sl_slist.o [21]
      .text               ro code  0x0002f47c    0x208  sl_power_manager_hal_s2.o [21]
      .text               ro code  0x0002f684      0x4  sl_power_manager.o [21]
      .text               ro code  0x0002f688    0xcc4  uartdrv.o [16]
      .text               ro code  0x0003034c    0x284  em_usart.o [17]
      .text               ro code  0x000305d0    0x140  em_gpio.o [17]
      .text               ro code  0x00030710     0x40  btl_interface.o [18]
      .text               ro code  0x00030750     0x9e  ota-client-policy.o [33]
      .text               ro code  0x000307ee     0x20  ota-client-page-request.o [32]
      .text               ro code  0x00030810     0xda  ota-common.o [34]
      .text               ro code  0x000308ec    0x2d0  ota-storage-eeprom-page-erase.o [37]
      .text               ro code  0x00030bbc    0x248  ota-storage-eeprom.o [37]
      .text               ro code  0x00030e04    0x19c  ota-storage-common.o [35]
      .text               ro code  0x00030fa0      0x4  ota-client-signature-verify.o [32]
      .text               ro code  0x00030fa4     0x28  basic.o [8]
      .text               ro code  0x00030fcc    0x124  identify.o [25]
      .text               ro code  0x000310f0     0x38  ikk-tick-handler.o [4]
      .text               ro code  0x00031128    0x450  ikk-button.o [3]
      .text               ro code  0x00031578     0x1c  zigbee-device-common.o [1]
      .text               ro code  0x00031594     0x5c  service-discovery-soc.o [46]
      .text               ro code  0x000315f0      0x2  af-security-common.o [46]
      .text               ro code  0x000315f4    0x31a  SEGGER_RTT.o [5]
      .text               ro code  0x00031910    0x13c  zcl-cli.o [46]
      .text               ro code  0x00031a4c     0xec  ikk-pwm.o [3]
      .text               ro code  0x00031b38      0xc  tolower.o [57]
      .text               ro code  0x00031b44     0x20  srand.o [57]
      .text               ro code  0x00031b64     0xe0  rand.o [57]
      .text               ro code  0x00031c44      0xc  sl_se_manager.o [27]
      .text               ro code  0x00031c50     0x2c  em_msc.o [17]
      .text               ro code  0x00031c7c    0x1c4  ccm-star.o [9]
      .text               ro code  0x00031e40    0x1c4  zdo-binding-table.o [48]
      .text               ro code  0x00032004    0x3e4  zdo-channel.o [73]
      .text               ro code  0x000323e8     0x28  rfhal_module.o [63]
      .text               ro code  0x00032410   0x177c  rail_rf_hal.o [63]
      .text               ro code  0x00033b8c     0x18  rail_assert.o [63]
      .text               ro code  0x00033ba4     0xd4  pa_conversions_efr32.o [63]
      .text               ro code  0x00033c78     0xc8  rfhal_antenna.o [63]
      .text               ro code  0x00033d40    0x104  se_aes.o [27]
      .text               ro code  0x00033e44     0xb4  pa_conversions_efr32.o [63]
      .text               ro code  0x00033ef8    0x228  rail_ieee802154_rf_hal.o [63]
      .text               ro code  0x00034120     0xe8  rfhal_ircal.o [63]
      .text               ro code  0x00034208      0x4  faults-v7m.o [14]
      .text               ro code  0x0003420c    0x284  sl_hfxo_manager_hal_s2.o [22]
      .text               ro code  0x00034490    0x418  dmadrv.o [16]
      .text               ro code  0x000348a8     0xc0  gpiointerrupt.o [16]
      .text               ro code  0x00034968     0x4c  em_core.o [17]
      .text               ro code  0x000349b4      0x4  eeprom-afv2.o [13]
      .text               ro code  0x000349b8     0x18  ota-bootload-soc.o [31]
      .text               ro code  0x000349d0    0x1cc  ikk-relay.o [3]
      .text               ro code  0x00034b9c      0x2  xtls.o [57]
      .text               ro code  0x00034ba0    0x264  rfhal_timings.o [63]
      .text               ro code  0x00034e04     0x12  rail_ble_rf_hal.o [63]
      .text               ro code  0x00034e18    0x5fc  rfhal_radio.o [63]
      .text               ro code  0x00035414    0xfc0  generic_phy.o [63]
      .text               ro code  0x000363d4    0x7cc  rfhal_pa.o [63]
      .text               ro code  0x00036ba0    0x650  rfhal_bufc.o [63]
      .text               ro code  0x000371f0    0x54e  rfhal_protimer.o [63]
      .text               ro code  0x00037740     0x34  rfhal_tempcal.o [63]
      .text               ro code  0x00037774    0x3b8  rfhal_synth.o [63]
      .text               ro code  0x00037b2c    0x124  rfhal_rand.o [63]
      .text               ro code  0x00037c50    0x168  rfhal_rtccsync.o [63]
      .text               ro code  0x00037db8    0x188  em_ldma.o [17]
      .text               ro code  0x00037f40    0x180  ikk-timer.o [3]
      .text               ro code  0x000380c0     0x54  seq_globals.o [63]
      .text               ro code  0x00038114      0x4  rail_mfm_rf_hal.o [63]
      .text               ro code  0x00038118    0x10c  rfhal_pti.o [63]
      .text               ro code  0x00038224     0x18  rfhal_rtccsync.o [63]
      .text               ro code  0x0003823c     0x1c  I32ToDbl.o [64]
      .text               ro code  0x00038258    0x256  DblDiv.o [64]
      .text               ro code  0x000384b0    0x1a2  DblMul.o [64]
      .text               ro code  0x00038654     0x2c  DblToI32.o [64]
      Veneer              ro code  0x00038680      0x8  - Linker created -
      .text               ro code  0x00038688     0xf8  nvm3_hal_flash.o [30]
      .text               ro code  0x00038780      0x4  faults-v7m.o [14]
      .text               ro code  0x00038784      0x4  faults-v7m.o [14]
      .text               ro code  0x00038788      0x4  faults-v7m.o [14]
      .text               ro code  0x0003878c      0x4  faults-v7m.o [14]
      .text               ro code  0x00038790      0x4  faults-v7m.o [14]
      .text               ro code  0x00038794      0x4  isr-stubs.o [14]
      .text               ro code  0x00038798     0x22  fpinit_M.o [64]
      .text               ro code  0x000387bc     0x1a  cmain.o [69]
      .text               ro code  0x000387d6      0x4  low_level_init.o [57]
      .text               ro code  0x000387dc     0x28  data_init.o [69]
      .text               ro code  0x00038804     0x16  simple-main.o [43]
      .text               ro code  0x0003881a      0x4  exit.o [57]
      .text               ro code  0x0003881e      0x4  sl_mbedtls.o [27]
      .text               ro code  0x00038824      0xa  cexit.o [69]
      .text               ro code  0x00038830      0xc  XXexit.o [69]
      .text               ro code  0x0003883c      0xe  startup_efr32mg21.o [60]
      .text               ro code  0x0003884a      0xc  cstartup_M.o [69]
      .text               ro code  0x00038856     0x40  zero_init3.o [69]
      .text               ro code  0x00038896     0x78  lz77_init_single.o [69]
    .rodata               const    0x00038910     0x3c  af-main-common.o [46]
    .rodata               const    0x0003894c     0x3c  af-main-common.o [46]
    .rodata               const    0x00038988     0x3c  af-main-common.o [46]
    .rodata               const    0x000389c4     0x3c  af-main-common.o [46]
    .rodata               const    0x00038a00      0x4  af-main-common.o [46]
    .rodata               const    0x00038a04     0x34  af-main-common.o [46]
    .rodata               const    0x00038a38     0x18  af-main-common.o [46]
    .rodata               const    0x00038a50     0x20  af-main-common.o [46]
    .rodata               const    0x00038a70      0x4  af-main-common.o [46]
    .rodata               const    0x00038a74     0x10  af-main-common.o [46]
    .rodata               const    0x00038a84     0x18  af-main-soc.o [46]
    .rodata               const    0x00038a9c     0x20  af-main-soc.o [46]
    .rodata               const    0x00038abc     0x14  af-main-soc.o [46]
    .rodata               const    0x00038ad0      0x8  af-main-soc.o [46]
    .rodata               const    0x00038ad8     0x10  af-main-soc.o [46]
    .rodata               const    0x00038ae8      0xc  af-main-soc.o [46]
    .rodata               const    0x00038af4     0x18  af-main-soc.o [46]
    .rodata               const    0x00038b0c     0x30  attribute-size.o [46]
    .rodata               const    0x00038b3c     0x70  attribute-storage.o [46]
    .rodata               const    0x00038bac      0x4  attribute-storage.o [46]
    .rodata               const    0x00038bb0      0x8  attribute-storage.o [46]
    .rodata               const    0x00038bb8      0x8  attribute-storage.o [46]
    .rodata               const    0x00038bc0      0xc  attribute-storage.o [46]
    .rodata               const    0x00038bcc     0x28  attribute-storage.o [46]
    .rodata               const    0x00038bf4      0x4  attribute-storage.o [46]
    .rodata               const    0x00038bf8    0x24c  attribute-storage.o [46]
    .rodata               const    0x00038e44     0xdc  attribute-storage.o [46]
    .rodata               const    0x00038f20      0x8  attribute-storage.o [46]
    .rodata               const    0x00038f28      0x4  attribute-storage.o [46]
    .rodata               const    0x00038f2c      0x4  attribute-storage.o [46]
    .rodata               const    0x00038f30     0x28  client-api.o [46]
    .rodata               const    0x00038f58     0x1c  client-api.o [46]
    .rodata               const    0x00038f74     0x34  client-api.o [46]
    .rodata               const    0x00038fa8     0x30  client-api.o [46]
    .rodata               const    0x00038fd8     0x18  message.o [46]
    .rodata               const    0x00038ff0     0x2c  process-cluster-message.o [46]
    .rodata               const    0x0003901c      0x8  process-cluster-message.o [46]
    .rodata               const    0x00039024      0xc  process-global-message.o [46]
    .rodata               const    0x00039030     0x1c  process-global-message.o [46]
    .rodata               const    0x0003904c      0x8  process-global-message.o [46]
    .rodata               const    0x00039054     0x18  process-global-message.o [46]
    .rodata               const    0x0003906c     0x20  util.o [46]
    .rodata               const    0x0003908c     0x1c  util.o [46]
    .rodata               const    0x000390a8      0x8  util.o [46]
    .rodata               const    0x000390b0     0x28  util.o [46]
    .rodata               const    0x000390d8      0x8  util.o [46]
    .rodata               const    0x000390e0      0x8  util.o [46]
    .rodata               const    0x000390e8      0x8  util.o [46]
    .rodata               const    0x000390f0      0x8  util.o [46]
    .rodata               const    0x000390f8     0x28  util.o [46]
    .rodata               const    0x00039120     0x28  util.o [46]
    .rodata               const    0x00039148      0x8  util.o [46]
    .rodata               const    0x00039150     0x28  util.o [46]
    .rodata               const    0x00039178     0x1c  util.o [46]
    .rodata               const    0x00039194      0x8  util.o [46]
    .rodata               const    0x0003919c     0x10  util.o [46]
    .rodata               const    0x000391ac     0x10  util.o [46]
    .rodata               const    0x000391bc     0x20  util.o [46]
    .rodata               const    0x000391dc     0x14  util.o [46]
    .rodata               const    0x000391f0     0x24  zcl-cli.o [46]
    .rodata               const    0x00039214      0xc  zcl-cli.o [46]
    .rodata               const    0x00039220     0x14  update-tc-link-key.o [45]
    .rodata               const    0x00039234     0x18  update-tc-link-key.o [45]
    .rodata               const    0x0003924c      0x8  update-tc-link-key.o [45]
    .rodata               const    0x00039254      0x8  update-tc-link-key.o [45]
    .rodata               const    0x0003925c      0xc  update-tc-link-key.o [45]
    .rodata               const    0x00039268     0x10  update-tc-link-key.o [45]
    .rodata               const    0x00039278     0x30  update-tc-link-key.o [45]
    .rodata               const    0x000392a8     0x28  serial.o [42]
    .rodata               const    0x000392d0     0x24  serial.o [42]
    .rodata               const    0x000392f4      0x8  com.o [41]
    .rodata               const    0x000392fc     0xc8  reporting-default-configuration.o [39]
    .rodata               const    0x000393c4     0x18  reporting.o [39]
    .rodata               const    0x000393dc     0x24  reporting.o [39]
    .rodata               const    0x00039400     0x20  reporting.o [39]
    .rodata               const    0x00039420     0x18  reporting.o [39]
    .rodata               const    0x00039438     0x20  ota-storage-eeprom-page-erase.o [37]
    .rodata               const    0x00039458     0x18  ota-storage-eeprom.o [37]
    .rodata               const    0x00039470      0x4  ota-storage-eeprom.o [37]
    .rodata               const    0x00039474      0xc  ota-storage-eeprom.o [37]
    .rodata               const    0x00039480      0xc  ota-storage-eeprom.o [37]
    .rodata               const    0x0003948c      0x4  ota-storage-simple.o [36]
    .rodata               const    0x00039490     0x10  ota-storage-common.o [35]
    .rodata               const    0x000394a0     0x14  ota-common.o [34]
    .rodata               const    0x000394b4      0xc  ota-common.o [34]
    .rodata               const    0x000394c0      0xc  ota-client.o [32]
    .rodata               const    0x000394cc      0xc  ota-client.o [32]
    .rodata               const    0x000394d8      0x4  ota-client.o [32]
    .rodata               const    0x000394dc      0x8  ota-client.o [32]
    .rodata               const    0x000394e4     0x14  ota-bootload-soc.o [31]
    .rodata               const    0x000394f8     0x1c  nvm3_hal_flash.o [30]
    .rodata               const    0x00039514      0x4  nvm3_lock.o [29]
    .rodata               const    0x00039518     0x2c  network-steering-soc.o [28]
    .rodata               const    0x00039544      0x8  network-steering.o [28]
    .rodata               const    0x0003954c     0x30  network-steering.o [28]
    .rodata               const    0x0003957c     0x30  network-steering.o [28]
    .rodata               const    0x000395ac     0x2c  network-steering.o [28]
    .rodata               const    0x000395d8     0x30  network-steering.o [28]
    .rodata               const    0x00039608     0x30  network-steering.o [28]
    .rodata               const    0x00039638     0x30  network-steering.o [28]
    .rodata               const    0x00039668     0x30  network-steering.o [28]
    .rodata               const    0x00039698     0x30  network-steering.o [28]
    .rodata               const    0x000396c8     0x3c  network-steering.o [28]
    .rodata               const    0x00039704     0x24  network-steering.o [28]
    .rodata               const    0x00039728     0x24  network-steering.o [28]
    .rodata               const    0x0003974c     0x1c  network-steering.o [28]
    .rodata               const    0x00039768     0x14  network-steering.o [28]
    .rodata               const    0x0003977c     0x28  network-steering.o [28]
    .rodata               const    0x000397a4     0x14  network-steering.o [28]
    .rodata               const    0x000397b8     0x2c  network-steering.o [28]
    .rodata               const    0x000397e4     0x2c  network-steering.o [28]
    .rodata               const    0x00039810     0x18  network-steering.o [28]
    .rodata               const    0x00039828     0x10  network-steering.o [28]
    .rodata               const    0x00039838     0x2c  network-steering.o [28]
    .rodata               const    0x00039864     0x50  network-steering.o [28]
    .rodata               const    0x000398b4     0x10  network-steering.o [28]
    .rodata               const    0x000398c4      0x8  network-steering.o [28]
    .rodata               const    0x000398cc     0x44  network-steering.o [28]
    .rodata               const    0x00039910     0x1c  network-steering.o [28]
    .rodata               const    0x0003992c     0x24  network-steering.o [28]
    .rodata               const    0x00039950     0x10  network-steering.o [28]
    .rodata               const    0x00039960     0x10  network-steering.o [28]
    .rodata               const    0x00039970     0x10  network-steering.o [28]
    .rodata               const    0x00039980     0x20  se_aes.o [27]
    .rodata               const    0x000399a0      0xc  se_aes.o [27]
    .rodata               const    0x000399ac      0xc  se_aes.o [27]
    .rodata               const    0x000399b8      0xc  se_aes.o [27]
    .rodata               const    0x000399c4      0x8  ias-zone-server.o [24]
    .rodata               const    0x000399cc      0x8  ias-zone-server.o [24]
    .rodata               const    0x000399d4     0x14  hal-config.o [21]
    .rodata               const    0x000399e8     0x10  hal-config.o [21]
    .rodata               const    0x000399f8     0x28  hal-config.o [21]
    .rodata               const    0x00039a20     0x1c  bootloader-interface-app.o [18]
    .rodata               const    0x00039a3c     0x40  bootloader-interface.o [18]
    .rodata               const    0x00039a7c     0x20  em_se.o [17]
    .rodata               const    0x00039a9c      0xc  em_se.o [17]
    .rodata               const    0x00039aa8     0x20  em_se.o [17]
    .rodata               const    0x00039ac8     0x10  dmadrv.o [16]
    .rodata               const    0x00039ad8     0x10  dmadrv.o [16]
    .rodata               const    0x00039ae8     0x10  dmadrv.o [16]
    .rodata               const    0x00039af8      0x4  dmadrv.o [16]
    .rodata               const    0x00039afc      0x8  sl_sleeptimer_hal_rtcc.o [16]
    .rodata               const    0x00039b04      0x8  sl_sleeptimer_hal_rtcc.o [16]
    .rodata               const    0x00039b0c      0x8  uartdrv.o [16]
    .rodata               const    0x00039b14     0x1c  uartdrv.o [16]
    .rodata               const    0x00039b30     0x10  ustimer.o [16]
    .rodata               const    0x00039b40     0x10  ustimer.o [16]
    .rodata               const    0x00039b50     0x24  ember-printf.o [15]
    .rodata               const    0x00039b74     0x14  assert-crash-handlers.o [14]
    .rodata               const    0x00039b88     0x20  cstartup-common.o [14]
    .rodata               const    0x00039ba8     0x40  diagnostic.o [14]
    .rodata               const    0x00039be8     0x38  diagnostic.o [14]
    .rodata               const    0x00039c20     0x44  diagnostic.o [14]
    .rodata               const    0x00039c64     0x3c  diagnostic.o [14]
    .rodata               const    0x00039ca0     0x30  diagnostic.o [14]
    .rodata               const    0x00039cd0     0x30  diagnostic.o [14]
    .rodata               const    0x00039d00     0x24  diagnostic.o [14]
    .rodata               const    0x00039d24     0x28  diagnostic.o [14]
    .rodata               const    0x00039d4c     0x40  diagnostic.o [14]
    .rodata               const    0x00039d8c     0x3c  diagnostic.o [14]
    .rodata               const    0x00039dc8     0x30  diagnostic.o [14]
    .rodata               const    0x00039df8     0x38  diagnostic.o [14]
    .rodata               const    0x00039e30     0x3c  diagnostic.o [14]
    .rodata               const    0x00039e6c     0x30  diagnostic.o [14]
    .rodata               const    0x00039e9c     0x38  diagnostic.o [14]
    .rodata               const    0x00039ed4     0x30  diagnostic.o [14]
    .rodata               const    0x00039f04     0x40  diagnostic.o [14]
    .rodata               const    0x00039f44     0x14  diagnostic.o [14]
    .rodata               const    0x00039f58      0xc  diagnostic.o [14]
    .rodata               const    0x00039f64      0xc  diagnostic.o [14]
    .rodata               const    0x00039f70     0x10  diagnostic.o [14]
    .rodata               const    0x00039f80     0x14  diagnostic.o [14]
    .rodata               const    0x00039f94      0xc  diagnostic.o [14]
    .rodata               const    0x00039fa0      0xc  diagnostic.o [14]
    .rodata               const    0x00039fac      0xc  diagnostic.o [14]
    .rodata               const    0x00039fb8      0xc  diagnostic.o [14]
    .rodata               const    0x00039fc4      0xc  diagnostic.o [14]
    .rodata               const    0x00039fd0      0xc  diagnostic.o [14]
    .rodata               const    0x00039fdc     0x10  diagnostic.o [14]
    .rodata               const    0x00039fec     0x10  diagnostic.o [14]
    .rodata               const    0x00039ffc     0x10  diagnostic.o [14]
    .rodata               const    0x0003a00c     0x10  diagnostic.o [14]
    .rodata               const    0x0003a01c     0x10  diagnostic.o [14]
    .rodata               const    0x0003a02c     0x10  diagnostic.o [14]
    .rodata               const    0x0003a03c     0x10  diagnostic.o [14]
    .rodata               const    0x0003a04c      0xc  diagnostic.o [14]
    .rodata               const    0x0003a058     0x10  diagnostic.o [14]
    .rodata               const    0x0003a068      0xc  diagnostic.o [14]
    .rodata               const    0x0003a074      0xc  diagnostic.o [14]
    .rodata               const    0x0003a080      0xc  diagnostic.o [14]
    .rodata               const    0x0003a08c      0xc  diagnostic.o [14]
    .rodata               const    0x0003a098      0xc  diagnostic.o [14]
    .rodata               const    0x0003a0a4     0x10  diagnostic.o [14]
    .rodata               const    0x0003a0b4     0x10  diagnostic.o [14]
    .rodata               const    0x0003a0c4      0xc  diagnostic.o [14]
    .rodata               const    0x0003a0d0      0xc  diagnostic.o [14]
    .rodata               const    0x0003a0dc      0xc  diagnostic.o [14]
    .rodata               const    0x0003a0e8      0xc  diagnostic.o [14]
    .rodata               const    0x0003a0f4      0xc  diagnostic.o [14]
    .rodata               const    0x0003a100      0xc  diagnostic.o [14]
    .rodata               const    0x0003a10c     0x10  diagnostic.o [14]
    .rodata               const    0x0003a11c      0xc  diagnostic.o [14]
    .rodata               const    0x0003a128      0xc  diagnostic.o [14]
    .rodata               const    0x0003a134     0x10  diagnostic.o [14]
    .rodata               const    0x0003a144     0x10  diagnostic.o [14]
    .rodata               const    0x0003a154     0x10  diagnostic.o [14]
    .rodata               const    0x0003a164      0xc  diagnostic.o [14]
    .rodata               const    0x0003a170      0xc  diagnostic.o [14]
    .rodata               const    0x0003a17c      0xc  diagnostic.o [14]
    .rodata               const    0x0003a188      0xc  diagnostic.o [14]
    .rodata               const    0x0003a194      0xc  diagnostic.o [14]
    .rodata               const    0x0003a1a0      0xc  diagnostic.o [14]
    .rodata               const    0x0003a1ac      0xc  diagnostic.o [14]
    .rodata               const    0x0003a1b8      0xc  diagnostic.o [14]
    .rodata               const    0x0003a1c4     0x10  diagnostic.o [14]
    .rodata               const    0x0003a1d4      0xc  diagnostic.o [14]
    .rodata               const    0x0003a1e0      0xc  diagnostic.o [14]
    .rodata               const    0x0003a1ec      0xc  diagnostic.o [14]
    .rodata               const    0x0003a1f8      0xc  diagnostic.o [14]
    .rodata               const    0x0003a204      0xc  diagnostic.o [14]
    .rodata               const    0x0003a210      0xc  diagnostic.o [14]
    .rodata               const    0x0003a21c      0xc  diagnostic.o [14]
    .rodata               const    0x0003a228      0xc  diagnostic.o [14]
    .rodata               const    0x0003a234      0xc  diagnostic.o [14]
    .rodata               const    0x0003a240     0x10  diagnostic.o [14]
    .rodata               const    0x0003a250     0x10  diagnostic.o [14]
    .rodata               const    0x0003a260     0x10  diagnostic.o [14]
    .rodata               const    0x0003a270     0x10  diagnostic.o [14]
    .rodata               const    0x0003a280      0x8  diagnostic.o [14]
    .rodata               const    0x0003a288      0x8  diagnostic.o [14]
    .rodata               const    0x0003a290      0x8  diagnostic.o [14]
    .rodata               const    0x0003a298      0x8  diagnostic.o [14]
    .rodata               const    0x0003a2a0     0x30  diagnostic.o [14]
    .rodata               const    0x0003a2d0     0x3c  diagnostic.o [14]
    .rodata               const    0x0003a30c     0x2c  diagnostic.o [14]
    .rodata               const    0x0003a338     0x20  diagnostic.o [14]
    .rodata               const    0x0003a358     0x30  diagnostic.o [14]
    .rodata               const    0x0003a388     0x18  diagnostic.o [14]
    .rodata               const    0x0003a3a0     0x40  diagnostic.o [14]
    .rodata               const    0x0003a3e0     0x30  diagnostic.o [14]
    .rodata               const    0x0003a410     0x1c  diagnostic.o [14]
    .rodata               const    0x0003a42c     0x1c  diagnostic.o [14]
    .rodata               const    0x0003a448     0x18  diagnostic.o [14]
    .rodata               const    0x0003a460     0x3c  diagnostic.o [14]
    .rodata               const    0x0003a49c     0x34  diagnostic.o [14]
    .rodata               const    0x0003a4d0     0x3c  diagnostic.o [14]
    .rodata               const    0x0003a50c     0x28  diagnostic.o [14]
    .rodata               const    0x0003a534     0x1c  diagnostic.o [14]
    .rodata               const    0x0003a550      0x8  diagnostic.o [14]
    .rodata               const    0x0003a558     0x18  diagnostic.o [14]
    .rodata               const    0x0003a570     0x48  diagnostic.o [14]
    .rodata               const    0x0003a5b8     0x30  diagnostic.o [14]
    .rodata               const    0x0003a5e8     0x1c  diagnostic.o [14]
    .rodata               const    0x0003a604     0x24  diagnostic.o [14]
    .rodata               const    0x0003a628      0xc  diagnostic.o [14]
    .rodata               const    0x0003a634     0x68  diagnostic.o [14]
    .rodata               const    0x0003a69c     0xf4  diagnostic.o [14]
    .rodata               const    0x0003a790     0xcc  diagnostic.o [14]
    .rodata               const    0x0003a85c      0xc  mfg-token.o [14]
    .rodata               const    0x0003a868      0x8  mfg-token.o [14]
    .rodata               const    0x0003a870      0xc  micro-common.o [14]
    .rodata               const    0x0003a87c      0x8  micro.o [14]
    .rodata               const    0x0003a884      0x8  micro.o [14]
    .rodata               const    0x0003a88c     0x30  micro.o [14]
    .rodata               const    0x0003a8bc      0x4  micro.o [14]
    .rodata               const    0x0003a8c0     0x58  micro.o [14]
    .rodata               const    0x0003a918     0x20  micro.o [14]
    .rodata               const    0x0003a938      0xc  micro.o [14]
    .rodata               const    0x0003a944      0x8  micro.o [14]
    .rodata               const    0x0003a94c      0xc  micro.o [14]
    .rodata               const    0x0003a958     0x10  micro.o [14]
    .rodata               const    0x0003a968      0x8  micro.o [14]
    .rodata               const    0x0003a970      0xc  micro.o [14]
    .rodata               const    0x0003a97c     0x10  micro.o [14]
    .rodata               const    0x0003a98c     0x20  micro.o [14]
    .rodata               const    0x0003a9ac     0x20  micro.o [14]
    .rodata               const    0x0003a9cc     0x30  micro.o [14]
    .rodata               const    0x0003a9fc      0xc  sleep-efm32.o [14]
    .rodata               const    0x0003aa08     0x10  sleep-efm32.o [14]
    .rodata               const    0x0003aa18      0x8  token.o [14]
    .rodata               const    0x0003aa20      0xc  eeprom.o [13]
    .rodata               const    0x0003aa2c     0x14  eeprom.o [13]
    .rodata               const    0x0003aa40      0xc  eeprom.o [13]
    .rodata               const    0x0003aa4c     0x68  diagnostic-server-soc.o [12]
    .rodata               const    0x0003aab4     0x40  diagnostic-server-soc.o [12]
    .rodata               const    0x0003aaf4     0x44  diagnostic-server-soc.o [12]
    .rodata               const    0x0003ab38     0x10  counters-soc.o [11]
    .rodata               const    0x0003ab48     0x14  counters-soc.o [11]
    .rodata               const    0x0003ab5c      0x8  antenna-stub.o [7]
    .rodata               const    0x0003ab64      0xc  SEGGER_RTT.o [5]
    .rodata               const    0x0003ab70      0x8  SEGGER_RTT.o [5]
    .rodata               const    0x0003ab78      0xc  ikk-rtt.o [5]
    .rodata               const    0x0003ab84     0x24  ikk-rtt.o [5]
    .rodata               const    0x0003aba8     0x1c  ikk-rtt.o [5]
    .rodata               const    0x0003abc4     0x1c  ikk-rtt.o [5]
    .rodata               const    0x0003abe0     0x24  ikk-rtt.o [5]
    .rodata               const    0x0003ac04     0x1c  ikk-rtt.o [5]
    .rodata               const    0x0003ac20      0x8  ikk-rtt.o [5]
    .rodata               const    0x0003ac28     0x1c  ikk-rtt.o [5]
    .rodata               const    0x0003ac44     0x24  ikk-rtt.o [5]
    .rodata               const    0x0003ac68      0x8  ikk-cluster.o [4]
    .rodata               const    0x0003ac70      0x8  ikk-cluster.o [4]
    .rodata               const    0x0003ac78     0x2c  ikk-cluster.o [4]
    .rodata               const    0x0003aca4     0x14  ikk-cluster.o [4]
    .rodata               const    0x0003acb8     0x28  ikk-cluster.o [4]
    .rodata               const    0x0003ace0     0x28  ikk-cluster.o [4]
    .rodata               const    0x0003ad08     0x10  ikk-cluster.o [4]
    .rodata               const    0x0003ad18     0x34  ikk-cluster.o [4]
    .rodata               const    0x0003ad4c     0x2c  ikk-cluster.o [4]
    .rodata               const    0x0003ad78     0x20  ikk-cluster.o [4]
    .rodata               const    0x0003ad98     0x20  ikk-cluster.o [4]
    .rodata               const    0x0003adb8     0x6c  ikk-cluster.o [4]
    .rodata               const    0x0003ae24     0x14  ikk-command.o [4]
    .rodata               const    0x0003ae38     0x18  ikk-command.o [4]
    .rodata               const    0x0003ae50     0x10  ikk-command.o [4]
    .rodata               const    0x0003ae60     0x20  ikk-command.o [4]
    .rodata               const    0x0003ae80     0x20  ikk-command.o [4]
    .rodata               const    0x0003aea0     0x10  ikk-command.o [4]
    .rodata               const    0x0003aeb0     0x10  ikk-command.o [4]
    .rodata               const    0x0003aec0     0x10  ikk-command.o [4]
    .rodata               const    0x0003aed0     0x1c  ikk-command.o [4]
    .rodata               const    0x0003aeec     0x18  ikk-common-utils.o [4]
    .rodata               const    0x0003af04     0x2c  ikk-factory-test.o [4]
    .rodata               const    0x0003af30     0x30  ikk-factory-test.o [4]
    .rodata               const    0x0003af60     0x50  ikk-factory-test.o [4]
    .rodata               const    0x0003afb0     0x50  ikk-factory-test.o [4]
    .rodata               const    0x0003b000     0x48  ikk-factory-test.o [4]
    .rodata               const    0x0003b048     0x28  ikk-factory-test.o [4]
    .rodata               const    0x0003b070     0x1c  ikk-factory-test.o [4]
    .rodata               const    0x0003b08c     0x1c  ikk-factory-test.o [4]
    .rodata               const    0x0003b0a8     0x1c  ikk-factory-test.o [4]
    .rodata               const    0x0003b0c4     0x3c  ikk-factory-test.o [4]
    .rodata               const    0x0003b100     0x2c  ikk-factory-test.o [4]
    .rodata               const    0x0003b12c     0x2c  ikk-factory-test.o [4]
    .rodata               const    0x0003b158     0x48  ikk-factory-test.o [4]
    .rodata               const    0x0003b1a0     0x48  ikk-factory-test.o [4]
    .rodata               const    0x0003b1e8     0x1c  ikk-factory-test.o [4]
    .rodata               const    0x0003b204     0x24  ikk-factory-test.o [4]
    .rodata               const    0x0003b228     0x28  ikk-factory-test.o [4]
    .rodata               const    0x0003b250     0x20  ikk-factory-test.o [4]
    .rodata               const    0x0003b270     0x18  ikk-factory-test.o [4]
    .rodata               const    0x0003b288     0x1c  ikk-factory-test.o [4]
    .rodata               const    0x0003b2a4     0x10  ikk-factory-test.o [4]
    .rodata               const    0x0003b2b4     0x20  ikk-factory-test.o [4]
    .rodata               const    0x0003b2d4     0x4c  ikk-factory-test.o [4]
    .rodata               const    0x0003b320     0x28  ikk-network.o [4]
    .rodata               const    0x0003b348     0x20  ikk-network.o [4]
    .rodata               const    0x0003b368     0x24  ikk-network.o [4]
    .rodata               const    0x0003b38c     0x28  ikk-network.o [4]
    .rodata               const    0x0003b3b4     0x28  ikk-network.o [4]
    .rodata               const    0x0003b3dc     0x10  ikk-network.o [4]
    .rodata               const    0x0003b3ec     0x24  ikk-network.o [4]
    .rodata               const    0x0003b410     0x28  ikk-network.o [4]
    .rodata               const    0x0003b438     0x24  ikk-network.o [4]
    .rodata               const    0x0003b45c     0x28  ikk-network.o [4]
    .rodata               const    0x0003b484     0x3c  ikk-network.o [4]
    .rodata               const    0x0003b4c0     0x38  ikk-network.o [4]
    .rodata               const    0x0003b4f8     0x30  ikk-network.o [4]
    .rodata               const    0x0003b528     0x18  ikk-network.o [4]
    .rodata               const    0x0003b540     0x18  ikk-network.o [4]
    .rodata               const    0x0003b558     0x1c  ikk-network.o [4]
    .rodata               const    0x0003b574     0x18  ikk-network.o [4]
    .rodata               const    0x0003b58c     0x30  ikk-network.o [4]
    .rodata               const    0x0003b5bc     0x30  ikk-network.o [4]
    .rodata               const    0x0003b5ec     0x14  ikk-network.o [4]
    .rodata               const    0x0003b600     0x34  ikk-network.o [4]
    .rodata               const    0x0003b634     0x28  ikk-network.o [4]
    .rodata               const    0x0003b65c      0x8  ikk-network.o [4]
    .rodata               const    0x0003b664     0x34  ikk-network.o [4]
    .rodata               const    0x0003b698     0x1c  ikk-network.o [4]
    .rodata               const    0x0003b6b4     0x14  ikk-network.o [4]
    .rodata               const    0x0003b6c8     0x24  ikk-network.o [4]
    .rodata               const    0x0003b6ec     0x28  ikk-network.o [4]
    .rodata               const    0x0003b714     0x30  ikk-network.o [4]
    .rodata               const    0x0003b744     0x24  ikk-network.o [4]
    .rodata               const    0x0003b768     0x18  ikk-network.o [4]
    .rodata               const    0x0003b780     0x34  ikk-network.o [4]
    .rodata               const    0x0003b7b4     0x3c  ikk-network.o [4]
    .rodata               const    0x0003b7f0     0x3c  ikk-network.o [4]
    .rodata               const    0x0003b82c     0x24  ikk-network.o [4]
    .rodata               const    0x0003b850     0x1c  ikk-network.o [4]
    .rodata               const    0x0003b86c     0x50  ikk-network.o [4]
    .rodata               const    0x0003b8bc     0x14  ikk-network.o [4]
    .rodata               const    0x0003b8d0      0x8  ikk-network.o [4]
    .rodata               const    0x0003b8d8     0x1c  ikk-network.o [4]
    .rodata               const    0x0003b8f4     0x28  ikk-network.o [4]
    .rodata               const    0x0003b91c     0x34  ikk-network.o [4]
    .rodata               const    0x0003b950     0x30  ikk-network.o [4]
    .rodata               const    0x0003b980     0x14  ikk-network.o [4]
    .rodata               const    0x0003b994     0x30  ikk-network.o [4]
    .rodata               const    0x0003b9c4     0x14  ikk-network.o [4]
    .rodata               const    0x0003b9d8     0x14  ikk-network.o [4]
    .rodata               const    0x0003b9ec     0x14  ikk-network.o [4]
    .rodata               const    0x0003ba00     0x28  ikk-network.o [4]
    .rodata               const    0x0003ba28     0x30  ikk-network.o [4]
    .rodata               const    0x0003ba58     0x20  ikk-network.o [4]
    .rodata               const    0x0003ba78     0x20  ikk-network.o [4]
    .rodata               const    0x0003ba98     0x1c  ikk-network.o [4]
    .rodata               const    0x0003bab4     0x1c  ikk-network.o [4]
    .rodata               const    0x0003bad0     0x24  ikk-opt-tunnel.o [4]
    .rodata               const    0x0003baf4     0x18  ikk-opt-tunnel.o [4]
    .rodata               const    0x0003bb0c     0x10  ikk-opt-tunnel.o [4]
    .rodata               const    0x0003bb1c     0x1c  ikk-opt-tunnel.o [4]
    .rodata               const    0x0003bb38     0x28  ikk-opt-tunnel.o [4]
    .rodata               const    0x0003bb60     0x2c  ikk-opt-tunnel.o [4]
    .rodata               const    0x0003bb8c     0x28  ikk-opt-tunnel.o [4]
    .rodata               const    0x0003bbb4     0x20  ikk-opt-tunnel.o [4]
    .rodata               const    0x0003bbd4     0x5c  ikk-opt-tunnel.o [4]
    .rodata               const    0x0003bc30     0x5c  ikk-opt-tunnel.o [4]
    .rodata               const    0x0003bc8c     0x5c  ikk-opt-tunnel.o [4]
    .rodata               const    0x0003bce8     0x38  ikk-opt-tunnel.o [4]
    .rodata               const    0x0003bd20     0x20  ikk-opt-tunnel.o [4]
    .rodata               const    0x0003bd40     0x2c  ikk-opt-tunnel.o [4]
    .rodata               const    0x0003bd6c     0x2c  ikk-opt-tunnel.o [4]
    .rodata               const    0x0003bd98     0x2c  ikk-opt-tunnel.o [4]
    .rodata               const    0x0003bdc4     0x34  ikk-opt-tunnel.o [4]
    .rodata               const    0x0003bdf8     0x34  ikk-opt-tunnel.o [4]
    .rodata               const    0x0003be2c     0x28  ikk-opt-tunnel.o [4]
    .rodata               const    0x0003be54     0x34  ikk-opt-tunnel.o [4]
    .rodata               const    0x0003be88     0x1c  ikk-opt-tunnel.o [4]
    .rodata               const    0x0003bea4     0x1c  ikk-opt-tunnel.o [4]
    .rodata               const    0x0003bec0     0x14  ikk-opt-tunnel.o [4]
    .rodata               const    0x0003bed4     0x14  ikk-opt-tunnel.o [4]
    .rodata               const    0x0003bee8     0x1c  ikk-opt-tunnel.o [4]
    .rodata               const    0x0003bf04     0x30  ikk-opt-tunnel.o [4]
    .rodata               const    0x0003bf34     0x30  ikk-opt-tunnel.o [4]
    .rodata               const    0x0003bf64     0x24  ikk-opt-tunnel.o [4]
    .rodata               const    0x0003bf88     0x1c  ikk-opt-tunnel.o [4]
    .rodata               const    0x0003bfa4     0x10  ikk-opt-tunnel.o [4]
    .rodata               const    0x0003bfb4     0x1c  ikk-ota.o [4]
    .rodata               const    0x0003bfd0     0x44  ikk-ota.o [4]
    .rodata               const    0x0003c014     0x28  ikk-ota.o [4]
    .rodata               const    0x0003c03c     0x30  ikk-ota.o [4]
    .rodata               const    0x0003c06c     0x38  ikk-adc.o [3]
    .rodata               const    0x0003c0a4     0x30  ikk-adc.o [3]
    .rodata               const    0x0003c0d4     0x2c  ikk-adc.o [3]
    .rodata               const    0x0003c100     0x18  ikk-adc.o [3]
    .rodata               const    0x0003c118     0x24  ikk-adc.o [3]
    .rodata               const    0x0003c13c     0x1c  ikk-adc.o [3]
    .rodata               const    0x0003c158     0x48  ikk-adc.o [3]
    .rodata               const    0x0003c1a0     0x34  ikk-adc.o [3]
    .rodata               const    0x0003c1d4     0x4c  ikk-button.o [3]
    .rodata               const    0x0003c220     0x18  ikk-button.o [3]
    .rodata               const    0x0003c238     0x50  ikk-button.o [3]
    .rodata               const    0x0003c288     0x18  ikk-button.o [3]
    .rodata               const    0x0003c2a0     0x34  ikk-button.o [3]
    .rodata               const    0x0003c2d4     0x18  ikk-button.o [3]
    .rodata               const    0x0003c2ec     0x40  ikk-button.o [3]
    .rodata               const    0x0003c32c     0x54  ikk-button.o [3]
    .rodata               const    0x0003c380     0x50  ikk-led.o [3]
    .rodata               const    0x0003c3d0     0x34  ikk-timer.o [3]
    .rodata               const    0x0003c404     0x10  ikk-timer.o [3]
    .rodata               const    0x0003c414     0x18  ikk-uart.o [3]
    .rodata               const    0x0003c42c     0x18  ikk-uart.o [3]
    .rodata               const    0x0003c444     0x28  ikk-uart.o [3]
    .rodata               const    0x0003c46c     0x28  ikk-uart.o [3]
    .rodata               const    0x0003c494     0x50  ikk-uart.o [3]
    .rodata               const    0x0003c4e4     0x20  ikk-uart.o [3]
    .rodata               const    0x0003c504     0x14  ikk-uart.o [3]
    .rodata               const    0x0003c518     0x38  ikk-user.o [2]
    .rodata               const    0x0003c550     0x40  ikk-user.o [2]
    .rodata               const    0x0003c590     0x2c  ikk-user.o [2]
    .rodata               const    0x0003c5bc     0x30  ikk-user.o [2]
    .rodata               const    0x0003c5ec     0x3c  ikk-user.o [2]
    .rodata               const    0x0003c628     0x44  ikk-user.o [2]
    .rodata               const    0x0003c66c     0x28  ikk-user.o [2]
    .rodata               const    0x0003c694     0x48  ikk-user.o [2]
    .rodata               const    0x0003c6dc     0x28  ikk-user.o [2]
    .rodata               const    0x0003c704     0x30  ikk-user.o [2]
    .rodata               const    0x0003c734     0x30  ikk-user.o [2]
    .rodata               const    0x0003c764     0x2c  ikk-user.o [2]
    .rodata               const    0x0003c790     0x18  ikk-user.o [2]
    .rodata               const    0x0003c7a8     0x30  ikk-user.o [2]
    .rodata               const    0x0003c7d8     0x58  ikk-user.o [2]
    .rodata               const    0x0003c830     0x30  ikk-user.o [2]
    .rodata               const    0x0003c860     0x34  ikk-user.o [2]
    .rodata               const    0x0003c894     0x34  ikk-user.o [2]
    .rodata               const    0x0003c8c8     0x4c  ikk-user.o [2]
    .rodata               const    0x0003c914     0x3c  ikk-user.o [2]
    .rodata               const    0x0003c950     0x48  ikk-user.o [2]
    .rodata               const    0x0003c998     0x38  ikk-user.o [2]
    .rodata               const    0x0003c9d0     0x44  ikk-user.o [2]
    .rodata               const    0x0003ca14     0x28  ikk-user.o [2]
    .rodata               const    0x0003ca3c     0x30  ikk-user.o [2]
    .rodata               const    0x0003ca6c     0x20  ikk-user.o [2]
    .rodata               const    0x0003ca8c     0x1c  ikk-user.o [2]
    .rodata               const    0x0003caa8     0x14  ikk-user.o [2]
    .rodata               const    0x0003cabc     0x1c  ikk-user.o [2]
    .rodata               const    0x0003cad8     0x14  ikk-user.o [2]
    .rodata               const    0x0003caec     0x38  ikk-user.o [2]
    .rodata               const    0x0003cb24     0x34  ikk-user.o [2]
    .rodata               const    0x0003cb58     0x20  ikk-user.o [2]
    .rodata               const    0x0003cb78     0x1c  ikk-user.o [2]
    .rodata               const    0x0003cb94     0x10  ikk-user.o [2]
    .rodata               const    0x0003cba4     0x28  ikk-user.o [2]
    .rodata               const    0x0003cbcc     0x20  ikk-user.o [2]
    .rodata               const    0x0003cbec      0x8  ikk-user.o [2]
    .rodata               const    0x0003cbf4     0x2c  ikk-user.o [2]
    .rodata               const    0x0003cc20     0x2c  ikk-user.o [2]
    .rodata               const    0x0003cc4c     0x1c  ikk-user.o [2]
    .rodata               const    0x0003cc68     0x48  ikk-user.o [2]
    .rodata               const    0x0003ccb0     0x58  ikk-user.o [2]
    .rodata               const    0x0003cd08     0x60  ikk-user.o [2]
    .rodata               const    0x0003cd68      0x8  ikk-user.o [2]
    .rodata               const    0x0003cd70      0x8  ikk-user.o [2]
    .rodata               const    0x0003cd78      0x8  ikk-user.o [2]
    .rodata               const    0x0003cd80     0x20  ikk-user.o [2]
    .rodata               const    0x0003cda0     0x1c  ikk-user.o [2]
    .rodata               const    0x0003cdbc     0x34  ikk-user.o [2]
    .rodata               const    0x0003cdf0     0x2c  ikk-user.o [2]
    .rodata               const    0x0003ce1c     0x3c  ikk-user.o [2]
    .rodata               const    0x0003ce58     0x30  ikk-user.o [2]
    .rodata               const    0x0003ce88     0x30  ikk-user.o [2]
    .rodata               const    0x0003ceb8     0x28  ikk-user.o [2]
    .rodata               const    0x0003cee0     0x18  ikk-user.o [2]
    .rodata               const    0x0003cef8     0x1c  ikk-user.o [2]
    .rodata               const    0x0003cf14     0x30  ikk-user.o [2]
    .rodata               const    0x0003cf44     0x28  ikk-user.o [2]
    .rodata               const    0x0003cf6c     0x28  ikk-user.o [2]
    .rodata               const    0x0003cf94     0x28  ikk-user.o [2]
    .rodata               const    0x0003cfbc     0x28  ikk-user.o [2]
    .rodata               const    0x0003cfe4     0x28  ikk-user.o [2]
    .rodata               const    0x0003d00c     0x1c  ikk-user.o [2]
    .rodata               const    0x0003d028     0x44  ikk-user.o [2]
    .rodata               const    0x0003d06c     0x64  ikk-user.o [2]
    .rodata               const    0x0003d0d0     0x2c  ikk-user.o [2]
    .rodata               const    0x0003d0fc     0x2c  ikk-user.o [2]
    .rodata               const    0x0003d128     0x50  ikk-user.o [2]
    .rodata               const    0x0003d178     0x24  ikk-user.o [2]
    .rodata               const    0x0003d19c     0x3c  ikk-user.o [2]
    .rodata               const    0x0003d1d8     0x34  ikk-user.o [2]
    .rodata               const    0x0003d20c     0x6c  ikk-user.o [2]
    .rodata               const    0x0003d278     0x2c  ikk-user.o [2]
    .rodata               const    0x0003d2a4     0x24  ikk-user.o [2]
    .rodata               const    0x0003d2c8     0x30  ikk-user.o [2]
    .rodata               const    0x0003d2f8     0x28  ikk-user.o [2]
    .rodata               const    0x0003d320     0x2c  ikk-user.o [2]
    .rodata               const    0x0003d34c     0x24  ikk-user.o [2]
    .rodata               const    0x0003d370     0x2c  ikk-user.o [2]
    .rodata               const    0x0003d39c     0x24  ikk-user.o [2]
    .rodata               const    0x0003d3c0     0x2c  ikk-user.o [2]
    .rodata               const    0x0003d3ec     0x24  ikk-user.o [2]
    .rodata               const    0x0003d410     0x34  ikk-user.o [2]
    .rodata               const    0x0003d444     0x1c  ikk-user.o [2]
    .rodata               const    0x0003d460     0x50  ikk-user.o [2]
    .rodata               const    0x0003d4b0     0x34  ikk-user.o [2]
    .rodata               const    0x0003d4e4     0x30  ikk-user.o [2]
    .rodata               const    0x0003d514     0x14  ikk-user.o [2]
    .rodata               const    0x0003d528     0x20  ikk-user.o [2]
    .rodata               const    0x0003d548     0x18  ikk-user.o [2]
    .rodata               const    0x0003d560     0x24  ikk-user.o [2]
    .rodata               const    0x0003d584     0x20  ikk-user.o [2]
    .rodata               const    0x0003d5a4     0x1c  ikk-user.o [2]
    .rodata               const    0x0003d5c0     0x14  ikk-user.o [2]
    .rodata               const    0x0003d5d4     0x18  ikk-user.o [2]
    .rodata               const    0x0003d5ec     0x14  ikk-user.o [2]
    .rodata               const    0x0003d600     0x20  ikk-user.o [2]
    .rodata               const    0x0003d620     0x1c  ikk-user.o [2]
    .rodata               const    0x0003d63c     0x1c  ikk-user.o [2]
    .rodata               const    0x0003d658     0x1c  ikk-user.o [2]
    .rodata               const    0x0003d674     0x20  ikk-user.o [2]
    .rodata               const    0x0003d694     0x1c  ikk-user.o [2]
    .rodata               const    0x0003d6b0     0x14  ikk-user.o [2]
    .rodata               const    0x0003d6c4     0x1c  ikk-user.o [2]
    .rodata               const    0x0003d6e0     0x1c  ikk-user.o [2]
    .rodata               const    0x0003d6fc     0x20  ikk-user.o [2]
    .rodata               const    0x0003d71c     0x1c  ikk-user.o [2]
    .rodata               const    0x0003d738     0x18  ikk-user.o [2]
    .rodata               const    0x0003d750     0x1c  ikk-user.o [2]
    .rodata               const    0x0003d76c     0x1c  ikk-user.o [2]
    .rodata               const    0x0003d788     0x20  ikk-user.o [2]
    .rodata               const    0x0003d7a8     0x1c  ikk-user.o [2]
    .rodata               const    0x0003d7c4     0x18  ikk-user.o [2]
    .rodata               const    0x0003d7dc     0x1c  ikk-user.o [2]
    .rodata               const    0x0003d7f8     0x24  ikk-user.o [2]
    .rodata               const    0x0003d81c     0x20  ikk-user.o [2]
    .rodata               const    0x0003d83c     0x1c  ikk-user.o [2]
    .rodata               const    0x0003d858     0x1c  ikk-user.o [2]
    .rodata               const    0x0003d874     0x18  ikk-user.o [2]
    .rodata               const    0x0003d88c     0x18  ikk-user.o [2]
    .rodata               const    0x0003d8a4     0x1c  ikk-user.o [2]
    .rodata               const    0x0003d8c0     0x30  ikk-user.o [2]
    .rodata               const    0x0003d8f0     0x28  ikk-user.o [2]
    .rodata               const    0x0003d918     0x28  ikk-user.o [2]
    .rodata               const    0x0003d940     0x2c  ikk-user.o [2]
    .rodata               const    0x0003d96c     0x2c  ikk-user.o [2]
    .rodata               const    0x0003d998     0x2c  ikk-user.o [2]
    .rodata               const    0x0003d9c4     0x24  ikk-user.o [2]
    .rodata               const    0x0003d9e8     0x44  ikk-user.o [2]
    .rodata               const    0x0003da2c     0x40  ikk-user.o [2]
    .rodata               const    0x0003da6c     0x34  ikk-user.o [2]
    .rodata               const    0x0003daa0     0x14  command-interpreter2.o [1]
    .rodata               const    0x0003dab4     0x10  command-interpreter2.o [1]
    .rodata               const    0x0003dac4     0x18  command-interpreter2.o [1]
    .rodata               const    0x0003dadc     0x14  command-interpreter2.o [1]
    .rodata               const    0x0003daf0     0x14  command-interpreter2.o [1]
    .rodata               const    0x0003db04      0xc  command-interpreter2.o [1]
    .rodata               const    0x0003db10     0x10  command-interpreter2.o [1]
    .rodata               const    0x0003db20      0xc  command-interpreter2.o [1]
    .rodata               const    0x0003db2c      0xc  command-interpreter2.o [1]
    .rodata               const    0x0003db38      0xc  command-interpreter2.o [1]
    .rodata               const    0x0003db44      0xc  command-interpreter2.o [1]
    .rodata               const    0x0003db50      0xc  command-interpreter2.o [1]
    .rodata               const    0x0003db5c      0xc  command-interpreter2.o [1]
    .rodata               const    0x0003db68      0xc  command-interpreter2.o [1]
    .rodata               const    0x0003db74      0xc  command-interpreter2.o [1]
    .rodata               const    0x0003db80      0x8  command-interpreter2.o [1]
    .rodata               const    0x0003db88     0x1c  command-interpreter2.o [1]
    .rodata               const    0x0003dba4      0x8  command-interpreter2.o [1]
    .rodata               const    0x0003dbac      0x8  command-interpreter2.o [1]
    .rodata               const    0x0003dbb4     0x40  command-interpreter2.o [1]
    .rodata               const    0x0003dbf4      0x8  command-interpreter2.o [1]
    .rodata               const    0x0003dbfc     0xe8  token-def.o [1]
    .rodata               const    0x0003dce4     0x3c  token-def.o [1]
    .rodata               const    0x0003dd20     0x3c  token-def.o [1]
    .rodata               const    0x0003dd5c     0x3c  token-def.o [1]
    .rodata               const    0x0003dd98     0x3c  token-def.o [1]
    .rodata               const    0x0003ddd4      0x4  token-def.o [1]
    .rodata               const    0x0003ddd8     0x14  token-def.o [1]
    .rodata               const    0x0003ddec      0x4  token-def.o [1]
    .rodata               const    0x0003ddf0      0x4  token-def.o [1]
    .rodata               const    0x0003ddf4     0x14  token-def.o [1]
    .rodata               const    0x0003de08     0x10  token-def.o [1]
    .rodata               const    0x0003de18     0x1c  token-def.o [1]
    .rodata               const    0x0003de34      0x8  token-def.o [1]
    .rodata               const    0x0003de3c      0xc  token-def.o [1]
    .rodata               const    0x0003de48     0x18  token-def.o [1]
    .rodata               const    0x0003de60     0x14  token-def.o [1]
    .rodata               const    0x0003de74     0x10  token-def.o [1]
    .rodata               const    0x0003de84     0x14  token-def.o [1]
    .rodata               const    0x0003de98     0x1c  token-def.o [1]
    .rodata               const    0x0003deb4      0x8  token-def.o [1]
    .rodata               const    0x0003debc      0xc  token-def.o [1]
    .rodata               const    0x0003dec8      0x4  token-def.o [1]
    .rodata               const    0x0003decc     0x10  token-def.o [1]
    .rodata               const    0x0003dedc      0xc  token-def.o [1]
    .rodata               const    0x0003dee8     0x1c  token-def.o [1]
    .rodata               const    0x0003df04     0x5c  token-def.o [1]
    .rodata               const    0x0003df60     0x10  token-def.o [1]
    .rodata               const    0x0003df70     0x28  token-def.o [1]
    .rodata               const    0x0003df98     0x14  token-def.o [1]
    .rodata               const    0x0003dfac     0x34  token-def.o [1]
    .rodata               const    0x0003dfe0      0x4  token-def.o [1]
    .rodata               const    0x0003dfe4     0x30  token-def.o [1]
    .rodata               const    0x0003e014      0x4  token-def.o [1]
    .rodata               const    0x0003e018      0xc  token-def.o [1]
    .rodata               const    0x0003e024      0x8  token-def.o [1]
    .rodata               const    0x0003e02c     0x14  token-def.o [1]
    .rodata               const    0x0003e040      0x8  token-def.o [1]
    .rodata               const    0x0003e048     0xe8  token-def.o [1]
    .rodata               const    0x0003e130     0x14  znet-cli.o [1]
    .rodata               const    0x0003e144      0x1  binding-table.o [48]
    .rodata               const    0x0003e146      0x2  attribute-storage.o [46]
    .rodata               const    0x0003e148     0x20  pa_curves_efr32.o [63]
    .rodata               const    0x0003e168     0xcc  pa_curves_efr32.o [63]
    .rodata               const    0x0003e234      0x1  trust-center-util.o [73]
    .rodata               const    0x0003e236      0x2  attribute-storage.o [46]
    .rodata               const    0x0003e238      0x1  route-table.o [73]
    .rodata               const    0x0003e23a      0x2  attribute-storage.o [46]
    .rodata               const    0x0003e23c     0x18  rail_ieee802154_rf_hal.o [63]
    .rodata               const    0x0003e254     0x18  rail_ble_rf_hal.o [63]
    .rodata               const    0x0003e26c    0x48c  ieee802154_efr32xg21_configurator_out.o [63]
    .rodata               const    0x0003e6f8   0x17e0  generic_efr32xg21_seq.o [63]
    .rodata               const    0x0003fed8      0x2  mfg-token.o [14]
    .rodata               const    0x0003feda      0x2  mfg-token.o [14]
    .rodata               const    0x0003fedc      0x2  mfg-token.o [14]
    .rodata               const    0x0003fede      0x2  mfg-token.o [14]
    .rodata               const    0x0003fee0      0x2  mfg-token.o [14]
    .rodata               const    0x0003fee2      0x2  mfg-token.o [14]
    .rodata               const    0x0003fee4      0x2  mfg-token.o [14]
    .rodata               const    0x0003fee6      0x2  mfg-token.o [14]
    .rodata               const    0x0003fee8      0x2  mfg-token.o [14]
    .rodata               const    0x0003feea      0x2  ember-configuration.o [1]
    .rodata               const    0x0003feec      0x2  token-def.o [1]
    .rodata               const    0x0003feee      0x2  token-def.o [1]
    .rodata               const    0x0003fef0      0x2  token-def.o [1]
    .rodata               const    0x0003fef2      0x2  token-def.o [1]
    .rodata               const    0x0003fef4      0x2  token-def.o [1]
    .rodata               const    0x0003fef6      0x2  token-def.o [1]
    .rodata               const    0x0003fef8      0x2  token-def.o [1]
    .rodata               const    0x0003fefa      0x2  token-def.o [1]
    .rodata               const    0x0003fefc      0x1  attribute-storage.o [46]
    .rodata               const    0x0003fefd      0x1  attribute-storage.o [46]
    .rodata               const    0x0003fefe      0x1  nvm3_lock.o [29]
    .rodata               const    0x0003feff      0x1  diagnostic.o [14]
    .rodata               const    0x0003ff00      0x1  diagnostic-server-soc.o [12]
    .rodata               const    0x0003ff01      0x1  command-interpreter2.o [1]
    .rodata               const    0x0003ff02      0x1  ember-configuration.o [1]
    .rodata               const    0x0003ff03      0x1  token-def.o [1]
    .rodata               const    0x0003ff04      0x1  token-def.o [1]
    .rodata               const    0x0003ff05      0x1  token-def.o [1]
    .rodata               const    0x0003ff06      0x1  token-def.o [1]
    .rodata               const    0x0003ff07      0x1  token-def.o [1]
    .rodata               const    0x0003ff08      0x1  token-def.o [1]
    .rodata               const    0x0003ff09      0x1  token-def.o [1]
    .rodata               const    0x0003ff0a      0x1  token-def.o [1]
    .rodata               const    0x0003ff0b      0x1  token-def.o [1]
    .rodata               const    0x0003ff0c      0x1  token-def.o [1]
    .rodata               const    0x0003ff0d      0x1  token-def.o [1]
    .rodata               const    0x0003ff0e      0x1  token-def.o [1]
    .rodata               const    0x0003ff0f      0x1  token-def.o [1]
    .rodata               const    0x0003ff10      0x1  token-def.o [1]
    .rodata               const    0x0003ff11      0x1  token-def.o [1]
    .rodata               const    0x0003ff12      0x1  token-def.o [1]
    .rodata               const    0x0003ff13      0x1  token-def.o [1]
    .rodata               const    0x0003ff14      0x1  token-def.o [1]
    .rodata               const    0x0003ff15      0x1  ember-multi-network-stub.o [66]
    .rodata               const    0x0003ff16      0x1  multi-pan-stub.o [67]
    .rodata               const    0x0003ff17      0x1  aps-keys-full-stub.o [70]
    .rodata               const    0x0003ff18      0x1  ember-library.o [73]
    .rodata               const    0x0003ff19      0x1  enhanced-beacon-request-stub.o [74]
    .rodata               const    0x0003ff1a      0x1  zll-stubs.o [75]
    .rodata               const    0x0003ff1b      0x1  cbke-crypto-engine-stub.o [54]
    .rodata               const    0x0003ff1c      0x1  cbke-crypto-engine-163k1-stub.o [49]
    .rodata               const    0x0003ff1d      0x1  cbke-crypto-engine-283k1-stub.o [50]
    .rodata               const    0x0003ff1e      0x1  end-device-bind-stub.o [58]
    .rodata               const    0x0003ff1f      0x1  cbke-crypto-engine-dsa-sign-stub.o [51]
    .rodata               const    0x0003ff20      0x1  packet-validate.o [68]
    .rodata               const    0x0003ff21      0x1  install-code-tokens.o [61]
    .rodata               const    0x0003ff22      0x1  cbke-crypto-engine-dsa-verify-283k1-stub.o [52]
    .rodata               const    0x0003ff23      0x1  cbke-crypto-engine-dsa-verify-stub.o [53]
    .rodata               const    0x0003ff24      0x0  zero_init3.o [69]
    .rodata               const    0x0003ff24      0x0  lz77_init_single.o [69]
    .data_init                     0x0003ff24    0x427  <Block>
      Initializer bytes   const    0x0003ff24    0x427  <for rw section .data-1>
    .iar.init_table       const    0x0004034c     0x48  - Linker created -
    Initializer bytes     const    0x00040394      0x8  <for DLIB_PERTHREAD_INITIALIZED_DATA-1>
                                 - 0x0004039c  0x3c19c

"SIMEE&LOCKBITS":                              0x6a000
  SIMEE                            0x00056000  0x10000  <Block>
    SIMEE                 uninit   0x00056000  0x10000  nvm3_default.o [30]
  INTERNAL_STORAGE        uninit   0x00066000  0x58000  cstartup-common.o [14]
  LOCKBITS_IN_MAINFLASH   uninit   0x000be000   0x2000  mfg-token.o [14]
                                 - 0x000c0000  0x6a000

"ResetHeap":                                    0x2900
  RESETHEAP                        0x20000000   0x2900  <Block>
    RESETINFO                      0x20000000     0x9c  <Block>
      RESETINFO           rw data  0x20000000      0x0  faults-v7m.o [14]
      RESETINFO           rw data  0x20000000      0x0  isr-stubs.o [14]
      RESETINFO           uninit   0x20000000     0x9c  cstartup-common.o [14]
    ALIGN_EMHEAP                   0x200000a0   0x2860  <Block>
      EMHEAP                       0x200000a0   0x2860  <Block>
        EMHEAP            uninit   0x200000a0   0x2860  ember-configuration.o [1]
                                 - 0x20002900   0x2900

"Guard":                                          0x20
  GUARD_REGION            zero     0x20002900     0x20  cstartup-common.o [14]
                                 - 0x20002920     0x20

"APP rw":                                       0x74e8
  APPRW_block                      0x20008b08   0x74e8  <Block>
    ALIGN_CSTACK                   0x20008b08    0x960  <Block>
      CSTACK                       0x20008b08    0x960  <Block>
        CSTACK            rw data  0x20008b08      0x0  faults-v7m.o [14]
        CSTACK            rw data  0x20008b08      0x0  isr-stubs.o [14]
        CSTACK            uninit   0x20008b08    0x960  cstartup-common.o [14]
    .textrw                        0x20009468    0x144  <Block>
      .textrw-1                    0x20009468    0x144  <Init block>
        .textrw           inited   0x20009468    0x144  em_msc.o [17]
    rw section .data-1             0x200095ac    0x951  <Init block>
      .data               inited   0x200095ac     0x24  af-event.o [46]
      .data               inited   0x200095d0    0x148  af-event.o [46]
      .data               inited   0x20009718      0x4  update-tc-link-key.o [45]
      .data               inited   0x2000971c     0x80  com.o [41]
      .data               inited   0x2000979c     0x80  com.o [41]
      .data               inited   0x2000981c     0x80  com.o [41]
      .data               inited   0x2000989c     0x80  com.o [41]
      .data               inited   0x2000991c      0x4  ota-storage-eeprom-page-erase.o [37]
      .data               inited   0x20009920      0x4  nvm3_default.o [30]
      .data               inited   0x20009924     0x1c  nvm3_default.o [30]
      .data               inited   0x20009940      0x4  nvm3_default.o [30]
      .data               inited   0x20009944     0x24  network-steering.o [28]
      .data               inited   0x20009968      0x4  network-steering.o [28]
      .data               inited   0x2000996c      0x4  network-steering.o [28]
      .data               inited   0x20009970      0x4  sl_hfxo_manager_hal_s2.o [22]
      .data               inited   0x20009974      0x4  sl_hfxo_manager_hal_s2.o [22]
      .data               inited   0x20009978      0x4  system_efr32mg21.o [17]
      .data               inited   0x2000997c      0x4  system_efr32mg21.o [17]
      .data               inited   0x20009980      0x4  system_efr32mg21.o [17]
      .data               inited   0x20009984      0x4  system_efr32mg21.o [17]
      .data               inited   0x20009988      0x4  micro.o [14]
      .data               inited   0x2000998c      0x8  sleep-efm32.o [14]
      .data               inited   0x20009994      0x8  ikk-network.o [4]
      .data               inited   0x2000999c     0x10  ikk-pwm.o [3]
      .data               inited   0x200099ac      0x4  ikk-pwm.o [3]
      .data               inited   0x200099b0     0x10  ikk-relay.o [3]
      .data               inited   0x200099c0     0x10  ikk-relay.o [3]
      .data               inited   0x200099d0      0x4  ikk-timer.o [3]
      .data               inited   0x200099d4     0x18  ikk-uart.o [3]
      .data               inited   0x200099ec      0x8  ikk-user.o [2]
      .data               inited   0x200099f4     0x44  ikk-user.o [2]
      .data               inited   0x20009a38      0xc  ikk-user.o [2]
      .data               inited   0x20009a44      0x8  ikk-user.o [2]
      .data               inited   0x20009a4c      0x8  ikk-user.o [2]
      .data               inited   0x20009a54      0x8  ikk-user.o [2]
      .data               inited   0x20009a5c      0x8  ikk-user.o [2]
      .data               inited   0x20009a64      0x8  ikk-user.o [2]
      .data               inited   0x20009a6c      0x8  ikk-user.o [2]
      .data               inited   0x20009a74     0x20  command-interpreter2.o [1]
      .data               inited   0x20009a94      0x4  ember-configuration.o [1]
      .data               inited   0x20009a98      0x4  ember-configuration.o [1]
      .data               inited   0x20009a9c      0x4  ember-configuration.o [1]
      .data               inited   0x20009aa0      0x4  ember-configuration.o [1]
      .data               inited   0x20009aa4      0x4  ember-configuration.o [1]
      .data               inited   0x20009aa8      0x4  ember-configuration.o [1]
      .data               inited   0x20009aac      0x4  ember-configuration.o [1]
      .data               inited   0x20009ab0      0x4  ember-configuration.o [1]
      .data               inited   0x20009ab4      0x4  ember-configuration.o [1]
      .data               inited   0x20009ab8      0x4  ember-configuration.o [1]
      .data               inited   0x20009abc      0x4  ember-configuration.o [1]
      .data               inited   0x20009ac0      0x4  ember-configuration.o [1]
      .data               inited   0x20009ac4      0x4  ember-configuration.o [1]
      .data               inited   0x20009ac8      0x4  ember-configuration.o [1]
      .data               inited   0x20009acc      0x4  ember-configuration.o [1]
      .data               inited   0x20009ad0      0x4  ember-configuration.o [1]
      .data               inited   0x20009ad4      0x4  ember-configuration.o [1]
      .data               inited   0x20009ad8      0x4  ember-configuration.o [1]
      .data               inited   0x20009adc      0x4  ember-configuration.o [1]
      .data               inited   0x20009ae0      0x4  ember-configuration.o [1]
      .data               inited   0x20009ae4      0x4  ember-configuration.o [1]
      .data               inited   0x20009ae8      0x4  ember-configuration.o [1]
      .data               inited   0x20009aec      0x4  ember-configuration.o [1]
      .data               inited   0x20009af0      0x4  ember-configuration.o [1]
      .data               inited   0x20009af4      0x4  buffer-management.o [73]
      .data               inited   0x20009af8      0x4  association.o [73]
      .data               inited   0x20009afc      0x8  zigbee-stack.o [73]
      .data               inited   0x20009b04     0xc8  zigbee-stack.o [73]
      .data               inited   0x20009bcc      0xc  application-support.o [73]
      .data               inited   0x20009bd8     0x14  lower-mac-rail-802.15.4.o [73]
      .data               inited   0x20009bec    0x1a4  lower-mac-rail-802.15.4.o [73]
      .data               inited   0x20009d90      0x4  lower-mac-rail-802.15.4.o [73]
      .data               inited   0x20009d94     0x3c  rail_power_manager.o [63]
      .data               inited   0x20009dd0     0x10  rail_rf.o [63]
      .data               inited   0x20009de0      0x4  beacon-handling.o [73]
      .data               inited   0x20009de4      0x4  mac-flat-header.o [73]
      .data               inited   0x20009de8      0x8  scan.o [73]
      .data               inited   0x20009df0     0x20  rail_rf_hal.o [63]
      .data               inited   0x20009e10      0x8  rail_rf_hal.o [63]
      .data               inited   0x20009e18      0x8  rail_assert.o [63]
      .data               inited   0x20009e20     0x50  rfhal_pa.o [63]
      .data               inited   0x20009e70      0x8  rfhal_radio.o [63]
      .data               inited   0x20009e78      0x8  rfhal_radio.o [63]
      .data               inited   0x20009e80      0x8  ieee802154_efr32xg21_configurator_out.o [63]
      .data               inited   0x20009e88      0x2  af-event.o [46]
      .data               inited   0x20009e8a      0x2  ota-client.o [32]
      .data               inited   0x20009e8c      0x2  ember-configuration.o [1]
      .data               inited   0x20009e8e      0x2  ember-configuration.o [1]
      .data               inited   0x20009e90      0x2  ember-configuration.o [1]
      .data               inited   0x20009e92      0x2  ember-configuration.o [1]
      .data               inited   0x20009e94      0x2  random.o [1]
      .data               inited   0x20009e96      0x2  random.o [1]
      .data               inited   0x20009e98      0x8  zigbee-device.o [73]
      .data               inited   0x20009ea0      0x2  aps-security.o [73]
      .data               inited   0x20009ea2      0x2  leave.o [73]
      .data               inited   0x20009ea4      0x2  child-handling.o [73]
      .data               inited   0x20009ea6      0x2  management.o [73]
      .data               inited   0x20009ea8      0x2  mac-command.o [73]
      .data               inited   0x20009eaa      0x4  rail_rf_hal.o [63]
      .data               inited   0x20009eae      0x2  zigbee-mac-header.o [73]
      .data               inited   0x20009eb0      0x1  af-main-soc.o [46]
      .data               inited   0x20009eb1      0x1  print.o [46]
      .data               inited   0x20009eb2      0x1  util.o [46]
      .data               inited   0x20009eb3      0x1  util.o [46]
      .data               inited   0x20009eb4      0x1  util.o [46]
      .data               inited   0x20009eb5      0x1  ota-common.o [34]
      .data               inited   0x20009eb6      0x1  ota-client.o [32]
      .data               inited   0x20009eb7      0x1  ota-client.o [32]
      .data               inited   0x20009eb8      0x1  hal-config.o [21]
      .data               inited   0x20009eb9      0x1  hal-config.o [21]
      .data               inited   0x20009eba      0x1  sl_sleeptimer_hal_rtcc.o [16]
      .data               inited   0x20009ebb      0x1  eeprom.o [13]
      .data               inited   0x20009ebc      0x1  ikk-network.o [4]
      .data               inited   0x20009ebd      0x1  ikk-network.o [4]
      .data               inited   0x20009ebe      0x1  ikk-relay.o [3]
      .data               inited   0x20009ebf      0x1  ikk-user.o [2]
      .data               inited   0x20009ec0      0x1  ikk-user.o [2]
      .data               inited   0x20009ec1      0x1  ikk-user.o [2]
      .data               inited   0x20009ec2      0x1  ikk-user.o [2]
      .data               inited   0x20009ec3      0x1  ikk-user.o [2]
      .data               inited   0x20009ec4      0x1  ikk-user.o [2]
      .data               inited   0x20009ec5      0x1  ikk-user.o [2]
      .data               inited   0x20009ec6      0x1  ikk-user.o [2]
      .data               inited   0x20009ec7      0x1  ikk-user.o [2]
      .data               inited   0x20009ec8      0x1  command-interpreter2.o [1]
      .data               inited   0x20009ec9      0x1  ember-configuration.o [1]
      .data               inited   0x20009eca      0x1  ember-configuration.o [1]
      .data               inited   0x20009ecb      0x1  ember-configuration.o [1]
      .data               inited   0x20009ecc      0x1  ember-configuration.o [1]
      .data               inited   0x20009ecd      0x1  ember-configuration.o [1]
      .data               inited   0x20009ece      0x1  ember-configuration.o [1]
      .data               inited   0x20009ecf      0x1  ember-configuration.o [1]
      .data               inited   0x20009ed0      0x1  ember-configuration.o [1]
      .data               inited   0x20009ed1      0x1  ember-configuration.o [1]
      .data               inited   0x20009ed2      0x1  ember-configuration.o [1]
      .data               inited   0x20009ed3      0x1  ember-configuration.o [1]
      .data               inited   0x20009ed4      0x1  ember-configuration.o [1]
      .data               inited   0x20009ed5      0x1  ember-configuration.o [1]
      .data               inited   0x20009ed6      0x1  ember-configuration.o [1]
      .data               inited   0x20009ed7      0x1  ember-configuration.o [1]
      .data               inited   0x20009ed8      0x1  ember-configuration.o [1]
      .data               inited   0x20009ed9      0x1  ember-configuration.o [1]
      .data               inited   0x20009eda      0x1  ember-configuration.o [1]
      .data               inited   0x20009edb      0x1  ember-configuration.o [1]
      .data               inited   0x20009edc      0x1  ember-configuration.o [1]
      .data               inited   0x20009edd      0x1  ember-configuration.o [1]
      .data               inited   0x20009ede      0x1  ember-configuration.o [1]
      .data               inited   0x20009edf      0x1  ember-configuration.o [1]
      .data               inited   0x20009ee0      0x1  ember-configuration.o [1]
      .data               inited   0x20009ee1      0x1  ember-configuration.o [1]
      .data               inited   0x20009ee2      0x1  zigbee-device-common.o [1]
      .data               inited   0x20009ee3      0x1  association.o [73]
      .data               inited   0x20009ee4      0x1  association.o [73]
      .data               inited   0x20009ee5      0x1  token-cache.o [73]
      .data               inited   0x20009ee6      0x1  lower-mac-rail-802.15.4.o [73]
      .data               inited   0x20009ee7      0x1  lower-mac-rail-802.15.4.o [73]
      .data               inited   0x20009ee8      0x2  lower-mac-rail-802.15.4.o [73]
      .data               inited   0x20009eea      0x1  aps-security.o [73]
      .data               inited   0x20009eeb      0x1  zigbee-device-util.o [73]
      .data               inited   0x20009eec      0x1  zigbee-device-util.o [73]
      .data               inited   0x20009eed      0x1  zigbee-device-util.o [73]
      .data               inited   0x20009eee      0x1  aps-keys.o [73]
      .data               inited   0x20009eef      0x1  zigbee-scan.o [73]
      .data               inited   0x20009ef0      0x1  aps-retry.o [73]
      .data               inited   0x20009ef1      0x1  network.o [73]
      .data               inited   0x20009ef2      0x1  mac-child.o [73]
      .data               inited   0x20009ef3      0x1  mac-child.o [73]
      .data               inited   0x20009ef4      0x1  neighbor.o [73]
      .data               inited   0x20009ef5      0x1  neighbor.o [73]
      .data               inited   0x20009ef6      0x1  beacon-handling.o [73]
      .data               inited   0x20009ef7      0x1  broadcast.o [73]
      .data               inited   0x20009ef8      0x1  zdo-channel.o [73]
      .data               inited   0x20009ef9      0x1  packet-validate.o [68]
      .data               inited   0x20009efa      0x1  route-discovery.o [73]
      .data               inited   0x20009efb      0x1  rfhal_antenna.o [63]
      .data               inited   0x20009efc      0x1  multi-network.o [73]
    DLIB_PERTHREAD_INITIALIZED_DATA
                                   0x20009f00     0x8c  <Block>
      DLIB_PERTHREAD_INITIALIZED_DATA-1
                                   0x20009f00     0x8c  <Init block>
        __DLIB_PERTHREAD  inited   0x20009f00     0x8c  rand.o [57]
    .bss                           0x20009f90   0x6064  <Block>
      .bss                zero     0x20009f90    0x168  reporting.o [39]
      .bss                zero     0x2000a0f8     0x50  nvm3_default.o [30]
      .bss                zero     0x2000a148      0x8  ikk-network.o [4]
      .bss                zero     0x2000a150    0x240  ikk-button.o [3]
      .bss                zero     0x2000a390      0x8  ikk-button.o [3]
      .bss                zero     0x2000a398      0x8  ikk-uart.o [3]
      .bss                zero     0x2000a3a0     0x34  lower-mac-rail-802.15.4.o [73]
      .bss                zero     0x2000a3d4     0x7c  attribute-storage.o [46]
      .bss                zero     0x2000a450     0x20  indirect-queue.o [73]
      .bss                zero     0x2000a470     0x90  rfhal_bufc.o [63]
      .bss                zero     0x2000a500     0x2c  generic_phy.o [63]
      .bss                zero     0x2000a52c      0x8  af-event.o [46]
      .bss                zero     0x2000a534      0x8  af-event.o [46]
      .bss                zero     0x2000a53c      0x8  af-event.o [46]
      .bss                zero     0x2000a544      0x8  af-event.o [46]
      .bss                zero     0x2000a54c    0x200  af-main-common.o [46]
      .bss                zero     0x2000a74c     0x10  attribute-storage.o [46]
      .bss                zero     0x2000a75c    0x218  attribute-storage.o [46]
      .bss                zero     0x2000a974      0x4  client-api.o [46]
      .bss                zero     0x2000a978      0x4  client-api.o [46]
      .bss                zero     0x2000a97c      0x4  client-api.o [46]
      .bss                zero     0x2000a980      0xc  message.o [46]
      .bss                zero     0x2000a98c     0x54  message.o [46]
      .bss                zero     0x2000a9e0      0x4  multi-network.o [46]
      .bss                zero     0x2000a9e4     0x20  service-discovery-common.o [46]
      .bss                zero     0x2000aa04     0x40  service-discovery-common.o [46]
      .bss                zero     0x2000aa44     0x20  util.o [46]
      .bss                zero     0x2000aa64      0x4  util.o [46]
      .bss                zero     0x2000aa68     0x18  util.o [46]
      .bss                zero     0x2000aa80     0x54  zcl-cli.o [46]
      .bss                zero     0x2000aad4      0xc  zcl-cli.o [46]
      .bss                zero     0x2000aae0      0x8  update-tc-link-key.o [45]
      .bss                zero     0x2000aae8     0x88  com.o [41]
      .bss                zero     0x2000ab70     0x88  com.o [41]
      .bss                zero     0x2000abf8     0x88  com.o [41]
      .bss                zero     0x2000ac80     0x88  com.o [41]
      .bss                zero     0x2000ad08     0x38  com.o [41]
      .bss                zero     0x2000ad40     0x78  com.o [41]
      .bss                zero     0x2000adb8     0xa0  scan-dispatch.o [40]
      .bss                zero     0x2000ae58      0x8  reporting.o [39]
      .bss                zero     0x2000ae60      0x4  ota-storage-eeprom-page-erase.o [37]
      .bss                zero     0x2000ae64      0x4  ota-storage-eeprom-page-erase.o [37]
      .bss                zero     0x2000ae68      0x8  ota-storage-eeprom.o [37]
      .bss                zero     0x2000ae70     0x10  ota-storage-simple.o [36]
      .bss                zero     0x2000ae80      0x4  ota-storage-simple.o [36]
      .bss                zero     0x2000ae84      0x4  ota-common.o [34]
      .bss                zero     0x2000ae88      0x4  ota-common.o [34]
      .bss                zero     0x2000ae8c      0x4  ota-client.o [32]
      .bss                zero     0x2000ae90     0x10  ota-client.o [32]
      .bss                zero     0x2000aea0      0x4  ota-client.o [32]
      .bss                zero     0x2000aea4    0x640  nvm3_default.o [30]
      .bss                zero     0x2000b4e4      0x4  nvm3_lock.o [29]
      .bss                zero     0x2000b4e8     0x2c  nvm3_lock.o [29]
      .bss                zero     0x2000b514     0x2c  nvm3_lock.o [29]
      .bss                zero     0x2000b540     0x2c  nvm3_lock.o [29]
      .bss                zero     0x2000b56c     0x2c  nvm3_lock.o [29]
      .bss                zero     0x2000b598      0x8  network-steering.o [28]
      .bss                zero     0x2000b5a0     0x10  network-steering.o [28]
      .bss                zero     0x2000b5b0     0x10  network-steering.o [28]
      .bss                zero     0x2000b5c0      0x4  network-steering.o [28]
      .bss                zero     0x2000b5c4      0x8  network-steering.o [28]
      .bss                zero     0x2000b5cc      0x4  identify.o [25]
      .bss                zero     0x2000b5d0      0x8  ias-zone-server.o [24]
      .bss                zero     0x2000b5d8      0x4  heartbeat.o [23]
      .bss                zero     0x2000b5dc      0x4  sl_hfxo_manager.o [22]
      .bss                zero     0x2000b5e0      0x4  sl_hfxo_manager.o [22]
      .bss                zero     0x2000b5e4     0x28  sl_hfxo_manager.o [22]
      .bss                zero     0x2000b60c      0x4  sl_hfxo_manager.o [22]
      .bss                zero     0x2000b610      0x4  sl_hfxo_manager.o [22]
      .bss                zero     0x2000b614      0x4  sl_hfxo_manager_hal_s2.o [22]
      .bss                zero     0x2000b618      0x4  sl_hfxo_manager_hal_s2.o [22]
      .bss                zero     0x2000b61c      0x4  sl_hfxo_manager_hal_s2.o [22]
      .bss                zero     0x2000b620      0x4  sl_hfxo_manager_hal_s2.o [22]
      .bss                zero     0x2000b624      0x4  sl_hfxo_manager_hal_s2.o [22]
      .bss                zero     0x2000b628      0x4  sl_hfxo_manager_hal_s2.o [22]
      .bss                zero     0x2000b62c      0x4  sl_mpu.o [21]
      .bss                zero     0x2000b630      0x4  sl_power_manager.o [21]
      .bss                zero     0x2000b634     0x18  sl_power_manager.o [21]
      .bss                zero     0x2000b64c      0x4  sl_power_manager.o [21]
      .bss                zero     0x2000b650      0x4  sl_power_manager.o [21]
      .bss                zero     0x2000b654      0x4  sl_power_manager.o [21]
      .bss                zero     0x2000b658      0x4  sl_power_manager_hal_s2.o [21]
      .bss                zero     0x2000b65c      0x4  sl_power_manager_hal_s2.o [21]
      .bss                zero     0x2000b660      0x8  form-and-join-afv2.o [19]
      .bss                zero     0x2000b668      0x4  form-and-join.o [19]
      .bss                zero     0x2000b66c      0x8  form-and-join.o [19]
      .bss                zero     0x2000b674      0x4  form-and-join.o [19]
      .bss                zero     0x2000b678      0x4  bootloader-interface-app.o [18]
      .bss                zero     0x2000b67c     0x18  bootloader-interface-app.o [18]
      .bss                zero     0x2000b694    0x22c  bootloader-interface-app.o [18]
      .bss                zero     0x2000b8c0     0x80  dmadrv.o [16]
      .bss                zero     0x2000b940    0x100  dmadrv.o [16]
      .bss                zero     0x2000ba40     0x40  gpiointerrupt.o [16]
      .bss                zero     0x2000ba80      0x4  sl_sleeptimer.o [16]
      .bss                zero     0x2000ba84      0x4  sl_sleeptimer.o [16]
      .bss                zero     0x2000ba88      0x4  sl_sleeptimer.o [16]
      .bss                zero     0x2000ba8c      0x4  sl_sleeptimer.o [16]
      .bss                zero     0x2000ba90     0x28  tempdrv.o [16]
      .bss                zero     0x2000bab8     0x28  tempdrv.o [16]
      .bss                zero     0x2000bae0      0x8  tempdrv.o [16]
      .bss                zero     0x2000bae8      0x4  tempdrv.o [16]
      .bss                zero     0x2000baec      0x4  tempdrv.o [16]
      .bss                zero     0x2000baf0     0x18  uartdrv.o [16]
      .bss                zero     0x2000bb08     0x10  uartdrv.o [16]
      .bss                zero     0x2000bb18      0x4  ustimer.o [16]
      .bss                zero     0x2000bb1c      0x4  ustimer.o [16]
      .bss                zero     0x2000bb20      0x8  cstartup-common.o [14]
      .bss                zero     0x2000bb28      0x8  sleep-efm32.o [14]
      .bss                zero     0x2000bb30      0x4  sleep-efm32.o [14]
      .bss                zero     0x2000bb34      0x4  sleep-efm32.o [14]
      .bss                zero     0x2000bb38     0x18  eeprom.o [13]
      .bss                zero     0x2000bb50     0x54  counters-soc.o [11]
      .bss                zero     0x2000bba4     0x54  counters-soc.o [11]
      .bss                zero     0x2000bbf8     0x24  counters-soc.o [11]
      .bss                zero     0x2000bc1c     0x84  counters-soc.o [11]
      .bss                zero     0x2000bca0     0x10  ccm-star.o [9]
      .bss                zero     0x2000bcb0      0x4  ccm-star.o [9]
      .bss                zero     0x2000bcb4      0x4  ccm-star.o [9]
      .bss                zero     0x2000bcb8     0x78  SEGGER_RTT.o [5]
      .bss                zero     0x2000bd30   0x1000  SEGGER_RTT.o [5]
      .bss                zero     0x2000cd30     0x40  SEGGER_RTT.o [5]
      .bss                zero     0x2000cd70    0x22c  ikk-rtt.o [5]
      .bss                zero     0x2000cf9c    0x22c  ikk-rtt.o [5]
      .bss                zero     0x2000d1c8      0x8  ikk-rtt.o [5]
      .bss                zero     0x2000d1d0      0x8  ikk-rtt.o [5]
      .bss                zero     0x2000d1d8      0x8  ikk-rtt.o [5]
      .bss                zero     0x2000d1e0      0x8  ikk-rtt.o [5]
      .bss                zero     0x2000d1e8    0x100  ikk-rtt.o [5]
      .bss                zero     0x2000d2e8    0x100  ikk-rtt.o [5]
      .bss                zero     0x2000d3e8    0x164  ikk-cluster.o [4]
      .bss                zero     0x2000d54c    0x104  ikk-common-utils.o [4]
      .bss                zero     0x2000d650      0x4  ikk-common-utils.o [4]
      .bss                zero     0x2000d654     0x10  ikk-common-utils.o [4]
      .bss                zero     0x2000d664      0x8  ikk-factory-test.o [4]
      .bss                zero     0x2000d66c     0x28  ikk-factory-test.o [4]
      .bss                zero     0x2000d694      0x4  ikk-factory-test.o [4]
      .bss                zero     0x2000d698      0x4  ikk-factory-test.o [4]
      .bss                zero     0x2000d69c      0x4  ikk-factory-test.o [4]
      .bss                zero     0x2000d6a0      0x4  ikk-network.o [4]
      .bss                zero     0x2000d6a4     0x48  ikk-network.o [4]
      .bss                zero     0x2000d6ec      0x4  ikk-network.o [4]
      .bss                zero     0x2000d6f0      0x8  ikk-network.o [4]
      .bss                zero     0x2000d6f8      0x4  ikk-network.o [4]
      .bss                zero     0x2000d6fc      0x4  ikk-network.o [4]
      .bss                zero     0x2000d700      0x8  ikk-network.o [4]
      .bss                zero     0x2000d708      0x4  ikk-network.o [4]
      .bss                zero     0x2000d70c      0x4  ikk-network.o [4]
      .bss                zero     0x2000d710      0x4  ikk-network.o [4]
      .bss                zero     0x2000d714      0x4  ikk-network.o [4]
      .bss                zero     0x2000d718      0x4  ikk-network.o [4]
      .bss                zero     0x2000d71c      0x4  ikk-network.o [4]
      .bss                zero     0x2000d720      0x4  ikk-network.o [4]
      .bss                zero     0x2000d724     0x20  ikk-network.o [4]
      .bss                zero     0x2000d744     0x10  ikk-network.o [4]
      .bss                zero     0x2000d754     0x10  ikk-network.o [4]
      .bss                zero     0x2000d764      0x8  ikk-network.o [4]
      .bss                zero     0x2000d76c      0x8  ikk-network.o [4]
      .bss                zero     0x2000d774      0x4  ikk-opt-tunnel.o [4]
      .bss                zero     0x2000d778     0x24  ikk-opt-tunnel.o [4]
      .bss                zero     0x2000d79c      0x8  ikk-opt-tunnel.o [4]
      .bss                zero     0x2000d7a4      0x4  ikk-ota.o [4]
      .bss                zero     0x2000d7a8      0x8  ikk-tick-handler.o [4]
      .bss                zero     0x2000d7b0     0x64  ikk-adc.o [3]
      .bss                zero     0x2000d814     0x68  ikk-adc.o [3]
      .bss                zero     0x2000d87c      0x8  ikk-adc.o [3]
      .bss                zero     0x2000d884     0x80  ikk-button.o [3]
      .bss                zero     0x2000d904      0xc  ikk-button.o [3]
      .bss                zero     0x2000d910      0x8  ikk-button.o [3]
      .bss                zero     0x2000d918      0x8  ikk-button.o [3]
      .bss                zero     0x2000d920      0x4  ikk-led.o [3]
      .bss                zero     0x2000d924      0x4  ikk-led.o [3]
      .bss                zero     0x2000d928     0x20  ikk-led.o [3]
      .bss                zero     0x2000d948     0x20  ikk-led.o [3]
      .bss                zero     0x2000d968     0xc0  ikk-led.o [3]
      .bss                zero     0x2000da28    0x1c0  ikk-led.o [3]
      .bss                zero     0x2000dbe8      0x8  ikk-led.o [3]
      .bss                zero     0x2000dbf0     0x78  ikk-pwm.o [3]
      .bss                zero     0x2000dc68      0x8  ikk-pwm.o [3]
      .bss                zero     0x2000dc70    0x240  ikk-relay.o [3]
      .bss                zero     0x2000deb0      0x4  ikk-relay.o [3]
      .bss                zero     0x2000deb4      0x4  ikk-relay.o [3]
      .bss                zero     0x2000deb8      0x4  ikk-relay.o [3]
      .bss                zero     0x2000debc      0x4  ikk-relay.o [3]
      .bss                zero     0x2000dec0      0x4  ikk-relay.o [3]
      .bss                zero     0x2000dec4     0x50  ikk-timer.o [3]
      .bss                zero     0x2000df14    0xacc  ikk-uart.o [3]
      .bss                zero     0x2000e9e0    0xacc  ikk-uart.o [3]
      .bss                zero     0x2000f4ac      0x8  ikk-uart.o [3]
      .bss                zero     0x2000f4b4      0x8  ikk-uart.o [3]
      .bss                zero     0x2000f4bc      0x8  ikk-uart.o [3]
      .bss                zero     0x2000f4c4    0x114  ikk-uart.o [3]
      .bss                zero     0x2000f5d8      0x8  ikk-user.o [2]
      .bss                zero     0x2000f5e0      0x8  ikk-user.o [2]
      .bss                zero     0x2000f5e8      0x8  ikk-user.o [2]
      .bss                zero     0x2000f5f0      0x8  ikk-user.o [2]
      .bss                zero     0x2000f5f8      0x8  ikk-user.o [2]
      .bss                zero     0x2000f600      0x8  ikk-user.o [2]
      .bss                zero     0x2000f608      0x8  ikk-user.o [2]
      .bss                zero     0x2000f610      0x8  ikk-user.o [2]
      .bss                zero     0x2000f618      0x8  ikk-user.o [2]
      .bss                zero     0x2000f620      0x8  ikk-user.o [2]
      .bss                zero     0x2000f628      0xc  ikk-user.o [2]
      .bss                zero     0x2000f634      0x4  ikk-user.o [2]
      .bss                zero     0x2000f638      0x4  ikk-user.o [2]
      .bss                zero     0x2000f63c     0x7c  command-interpreter2.o [1]
      .bss                zero     0x2000f6b8      0x4  command-interpreter2.o [1]
      .bss                zero     0x2000f6bc     0x58  ember-configuration.o [1]
      .bss                zero     0x2000f714      0x8  ember-configuration.o [1]
      .bss                zero     0x2000f71c      0x8  ember-configuration.o [1]
      .bss                zero     0x2000f724      0x8  ember-configuration.o [1]
      .bss                zero     0x2000f72c      0x8  ember-configuration.o [1]
      .bss                zero     0x2000f734      0x8  ember-configuration.o [1]
      .bss                zero     0x2000f73c      0x8  ember-configuration.o [1]
      .bss                zero     0x2000f744      0x8  ember-configuration.o [1]
      .bss                zero     0x2000f74c      0x8  ember-configuration.o [1]
      .bss                zero     0x2000f754      0x8  ember-configuration.o [1]
      .bss                zero     0x2000f75c      0x8  ember-configuration.o [1]
      .bss                zero     0x2000f764     0x3c  ember-configuration.o [1]
      .bss                zero     0x2000f7a0      0x4  event-control.o [73]
      .bss                zero     0x2000f7a4     0x20  buffer-management.o [73]
      .bss                zero     0x2000f7c4      0x8  ember-multi-network-stub.o [66]
      .bss                zero     0x2000f7cc      0xc  zigbee-dispatch.o [73]
      .bss                zero     0x2000f7d8     0x24  association.o [73]
      .bss                zero     0x2000f7fc     0x18  association.o [73]
      .bss                zero     0x2000f814      0x8  eui64.o [73]
      .bss                zero     0x2000f81c     0x68  lower-mac-rail-802.15.4.o [73]
      .bss                zero     0x2000f884      0x4  lower-mac-rail-802.15.4.o [73]
      .bss                zero     0x2000f888     0x10  aps-security.o [73]
      .bss                zero     0x2000f898     0x1c  system-timer.o [60]
      .bss                zero     0x2000f8b4      0x8  zigbee-device-util.o [73]
      .bss                zero     0x2000f8bc      0xc  leave.o [73]
      .bss                zero     0x2000f8c8      0xe  child-handling.o [73]
      .bss                zero     0x2000f8d6      0x2  client-api.o [46]
      .bss                zero     0x2000f8d8      0x8  child-handling.o [73]
      .bss                zero     0x2000f8e0      0x8  aps-keys-transient.o [73]
      .bss                zero     0x2000f8e8     0x18  zigbee-scan.o [73]
      .bss                zero     0x2000f900      0x8  zigbee-scan.o [73]
      .bss                zero     0x2000f908      0x4  nvm3.o [62]
      .bss                zero     0x2000f90c      0x8  rail_power_manager.o [63]
      .bss                zero     0x2000f914     0x28  pa_conversions_efr32.o [63]
      .bss                zero     0x2000f93c      0x8  mac-header.o [73]
      .bss                zero     0x2000f944     0x24  aes-efm32.o [73]
      .bss                zero     0x2000f968      0xe  aps-retry.o [73]
      .bss                zero     0x2000f976      0x2  message.o [46]
      .bss                zero     0x2000f978     0x12  jit.o [73]
      .bss                zero     0x2000f98a      0x2  message.o [46]
      .bss                zero     0x2000f98c      0x4  network.o [73]
      .bss                zero     0x2000f990     0x10  network.o [73]
      .bss                zero     0x2000f9a0      0x8  network.o [73]
      .bss                zero     0x2000f9a8    0x170  upper-mac.o [73]
      .bss                zero     0x2000fb18      0x8  upper-mac.o [73]
      .bss                zero     0x2000fb20     0x28  mac-child.o [73]
      .bss                zero     0x2000fb48      0x8  neighbor.o [73]
      .bss                zero     0x2000fb50      0xe  beacon-handling.o [73]
      .bss                zero     0x2000fb5e      0x2  print.o [46]
      .bss                zero     0x2000fb60      0xc  beacon-handling.o [73]
      .bss                zero     0x2000fb6c     0x10  retry.o [73]
      .bss                zero     0x2000fb7c      0x8  enhanced-beacon-request-stub.o [74]
      .bss                zero     0x2000fb84      0x8  gp-stub.o [59]
      .bss                zero     0x2000fb8c      0x8  gp-stub.o [59]
      .bss                zero     0x2000fb94      0x8  gp-stub.o [59]
      .bss                zero     0x2000fb9c      0x8  zll-stubs.o [75]
      .bss                zero     0x2000fba4      0x8  zll-stubs.o [75]
      .bss                zero     0x2000fbac     0x10  indirect-queue.o [73]
      .bss                zero     0x2000fbbc     0x34  scan.o [73]
      .bss                zero     0x2000fbf0     0x14  zdo-channel.o [73]
      .bss                zero     0x2000fc04     0x10  store-forward.o [73]
      .bss                zero     0x2000fc14      0x8  end-device-bind-stub.o [58]
      .bss                zero     0x2000fc1c      0x4  aps-encryption.o [73]
      .bss                zero     0x2000fc20      0xc  rail_singleprotocol.o [63]
      .bss                zero     0x2000fc2c    0x200  rail_data.o [63]
      .bss                zero     0x2000fe2c      0xc  rail_rf_hal.o [63]
      .bss                zero     0x2000fe38     0x10  rail_rf_hal.o [63]
      .bss                zero     0x2000fe48      0xc  zigbee-mac-header.o [73]
      .bss                zero     0x2000fe54     0x20  unicast-table.o [73]
      .bss                zero     0x2000fe74      0x8  rfhal_protimer.o [63]
      .bss                zero     0x2000fe7c     0x10  rfhal_protimer.o [63]
      .bss                zero     0x2000fe8c     0x15  rfhal_pti.o [63]
      .bss                zero     0x2000fea1      0x2  event-control.o [73]
      .bss                zero     0x2000fea3      0x1  af-event.o [46]
      .bss                zero     0x2000fea4     0x48  rfhal_radio.o [63]
      .bss                zero     0x2000feec      0xc  rfhal_synth.o [63]
      .bss                zero     0x2000fef8      0x4  rfhal_timings.o [63]
      .bss                zero     0x2000fefc      0x2  zcl-cli.o [46]
      .bss                zero     0x2000fefe      0x2  zcl-cli.o [46]
      .bss                zero     0x2000ff00      0x2  reporting.o [39]
      .bss                zero     0x2000ff02      0x2  ota-client.o [32]
      .bss                zero     0x2000ff04      0x2  ota-client.o [32]
      .bss                zero     0x2000ff06      0x2  network-steering-soc.o [28]
      .bss                zero     0x2000ff08      0x2  sl_power_manager.o [21]
      .bss                zero     0x2000ff0a      0x2  form-and-join-node-adapter.o [19]
      .bss                zero     0x2000ff0c      0x2  sl_sleeptimer.o [16]
      .bss                zero     0x2000ff0e      0x2  cstartup-common.o [14]
      .bss                zero     0x2000ff10      0x2  ikk-relay.o [3]
      .bss                zero     0x2000ff12      0x2  ikk-uart.o [3]
      .bss                zero     0x2000ff14      0x2  ikk-user.o [2]
      .bss                zero     0x2000ff16      0x2  ikk-user.o [2]
      .bss                zero     0x2000ff18      0x2  ikk-user.o [2]
      .bss                zero     0x2000ff1a      0x2  ikk-user.o [2]
      .bss                zero     0x2000ff1c      0x2  ikk-user.o [2]
      .bss                zero     0x2000ff1e      0x2  ikk-user.o [2]
      .bss                zero     0x2000ff20      0x2  ikk-user.o [2]
      .bss                zero     0x2000ff22      0x2  ember-configuration.o [1]
      .bss                zero     0x2000ff24      0x2  token-cache.o [73]
      .bss                zero     0x2000ff26      0x4  zigbee-device.o [73]
      .bss                zero     0x2000ff2a      0x2  mac-dispatch.o [73]
      .bss                zero     0x2000ff2c      0x2  network.o [73]
      .bss                zero     0x2000ff2e      0x4  network.o [73]
      .bss                zero     0x2000ff32      0x2  trust-center-util.o [73]
      .bss                zero     0x2000ff34      0x4  broadcast.o [73]
      .bss                zero     0x2000ff38      0x4  route-table.o [73]
      .bss                zero     0x2000ff3c      0x4  multi-network.o [73]
      .bss                zero     0x2000ff40      0x2  generic_phy.o [63]
      .bss                zero     0x2000ff42      0x1  af-trust-center.o [46]
      .bss                zero     0x2000ff43      0x1  attribute-storage.o [46]
      .bss                zero     0x2000ff44      0x1  crypto-state.o [46]
      .bss                zero     0x2000ff45      0x1  network-cli.o [46]
      .bss                zero     0x2000ff46      0x1  process-global-message.o [46]
      .bss                zero     0x2000ff47      0x1  service-discovery-common.o [46]
      .bss                zero     0x2000ff48      0x1  util.o [46]
      .bss                zero     0x2000ff49      0x1  util.o [46]
      .bss                zero     0x2000ff4a      0x1  util.o [46]
      .bss                zero     0x2000ff4b      0x1  util.o [46]
      .bss                zero     0x2000ff4c      0x1  util.o [46]
      .bss                zero     0x2000ff4d      0x1  util.o [46]
      .bss                zero     0x2000ff4e      0x1  zcl-cli.o [46]
      .bss                zero     0x2000ff4f      0x1  zcl-cli.o [46]
      .bss                zero     0x2000ff50      0x1  update-tc-link-key.o [45]
      .bss                zero     0x2000ff51      0x1  scan-dispatch.o [40]
      .bss                zero     0x2000ff52      0x1  scan-dispatch.o [40]
      .bss                zero     0x2000ff53      0x1  scan-dispatch.o [40]
      .bss                zero     0x2000ff54      0x1  ota-storage-eeprom-page-erase.o [37]
      .bss                zero     0x2000ff55      0x1  ota-storage-eeprom-page-erase.o [37]
      .bss                zero     0x2000ff56      0x1  ota-storage-eeprom-page-erase.o [37]
      .bss                zero     0x2000ff57      0x1  ota-storage-simple.o [36]
      .bss                zero     0x2000ff58      0x1  ota-storage-simple.o [36]
      .bss                zero     0x2000ff59      0x1  ota-common.o [34]
      .bss                zero     0x2000ff5a      0x1  ota-client.o [32]
      .bss                zero     0x2000ff5b      0x1  ota-client.o [32]
      .bss                zero     0x2000ff5c      0x1  ota-client.o [32]
      .bss                zero     0x2000ff5d      0x1  ota-client.o [32]
      .bss                zero     0x2000ff5e      0x1  ota-client.o [32]
      .bss                zero     0x2000ff5f      0x1  ota-client.o [32]
      .bss                zero     0x2000ff60      0x1  ota-client.o [32]
      .bss                zero     0x2000ff61      0x1  ota-client.o [32]
      .bss                zero     0x2000ff62      0x1  network-steering.o [28]
      .bss                zero     0x2000ff63      0x1  network-steering.o [28]
      .bss                zero     0x2000ff64      0x1  network-steering.o [28]
      .bss                zero     0x2000ff65      0x1  network-steering.o [28]
      .bss                zero     0x2000ff66      0x1  network-steering.o [28]
      .bss                zero     0x2000ff67      0x1  network-steering.o [28]
      .bss                zero     0x2000ff68      0x1  network-steering.o [28]
      .bss                zero     0x2000ff69      0x1  network-steering.o [28]
      .bss                zero     0x2000ff6a      0x1  network-steering.o [28]
      .bss                zero     0x2000ff6b      0x1  idle-sleep.o [26]
      .bss                zero     0x2000ff6c      0x1  idle-sleep.o [26]
      .bss                zero     0x2000ff6d      0x1  idle-sleep.o [26]
      .bss                zero     0x2000ff6e      0x1  ias-zone-server.o [24]
      .bss                zero     0x2000ff6f      0x1  sl_hfxo_manager.o [22]
      .bss                zero     0x2000ff70      0x1  sl_hfxo_manager.o [22]
      .bss                zero     0x2000ff71      0x1  sl_hfxo_manager_hal_s2.o [22]
      .bss                zero     0x2000ff72      0x1  sl_hfxo_manager_hal_s2.o [22]
      .bss                zero     0x2000ff73      0x1  sl_hfxo_manager_hal_s2.o [22]
      .bss                zero     0x2000ff74      0x1  sl_power_manager.o [21]
      .bss                zero     0x2000ff75      0x1  sl_power_manager.o [21]
      .bss                zero     0x2000ff76      0x1  sl_power_manager.o [21]
      .bss                zero     0x2000ff77      0x1  sl_power_manager.o [21]
      .bss                zero     0x2000ff78      0x1  sl_power_manager.o [21]
      .bss                zero     0x2000ff79      0x1  sl_power_manager.o [21]
      .bss                zero     0x2000ff7a      0x1  sl_power_manager.o [21]
      .bss                zero     0x2000ff7b      0x1  sl_power_manager.o [21]
      .bss                zero     0x2000ff7c      0x1  sl_power_manager_hal_s2.o [21]
      .bss                zero     0x2000ff7d      0x1  sl_power_manager_hal_s2.o [21]
      .bss                zero     0x2000ff7e      0x1  sl_power_manager_hal_s2.o [21]
      .bss                zero     0x2000ff7f      0x1  form-and-join.o [19]
      .bss                zero     0x2000ff80      0x1  form-and-join.o [19]
      .bss                zero     0x2000ff81      0x1  form-and-join.o [19]
      .bss                zero     0x2000ff82      0x1  form-and-join.o [19]
      .bss                zero     0x2000ff83      0x1  btl_interface.o [18]
      .bss                zero     0x2000ff84      0x1  dmadrv.o [16]
      .bss                zero     0x2000ff85      0x1  sl_sleeptimer.o [16]
      .bss                zero     0x2000ff86      0x1  sl_sleeptimer.o [16]
      .bss                zero     0x2000ff87      0x1  sl_sleeptimer.o [16]
      .bss                zero     0x2000ff88      0x1  tempdrv.o [16]
      .bss                zero     0x2000ff89      0x1  uartdrv.o [16]
      .bss                zero     0x2000ff8a      0x1  ustimer.o [16]
      .bss                zero     0x2000ff8b      0x1  sleep-efm32.o [14]
      .bss                zero     0x2000ff8c      0x1  token.o [14]
      .bss                zero     0x2000ff8d      0x1  eeprom.o [13]
      .bss                zero     0x2000ff8e      0x1  eeprom.o [13]
      .bss                zero     0x2000ff8f      0x1  ikk-cluster.o [4]
      .bss                zero     0x2000ff90      0x1  ikk-cluster.o [4]
      .bss                zero     0x2000ff91      0x1  ikk-factory-test.o [4]
      .bss                zero     0x2000ff92      0x1  ikk-factory-test.o [4]
      .bss                zero     0x2000ff93      0x1  ikk-factory-test.o [4]
      .bss                zero     0x2000ff94      0x1  ikk-factory-test.o [4]
      .bss                zero     0x2000ff95      0x1  ikk-network.o [4]
      .bss                zero     0x2000ff96      0x1  ikk-network.o [4]
      .bss                zero     0x2000ff97      0x1  ikk-network.o [4]
      .bss                zero     0x2000ff98      0x1  ikk-network.o [4]
      .bss                zero     0x2000ff99      0x1  ikk-network.o [4]
      .bss                zero     0x2000ff9a      0x1  ikk-network.o [4]
      .bss                zero     0x2000ff9b      0x1  ikk-network.o [4]
      .bss                zero     0x2000ff9c      0x1  ikk-network.o [4]
      .bss                zero     0x2000ff9d      0x1  ikk-network.o [4]
      .bss                zero     0x2000ff9e      0x1  ikk-network.o [4]
      .bss                zero     0x2000ff9f      0x1  ikk-opt-tunnel.o [4]
      .bss                zero     0x2000ffa0      0x1  ikk-ota.o [4]
      .bss                zero     0x2000ffa1      0x1  ikk-ota.o [4]
      .bss                zero     0x2000ffa2      0x1  ikk-ota.o [4]
      .bss                zero     0x2000ffa3      0x1  ikk-button.o [3]
      .bss                zero     0x2000ffa4      0x1  ikk-button.o [3]
      .bss                zero     0x2000ffa5      0x1  ikk-relay.o [3]
      .bss                zero     0x2000ffa6      0x1  ikk-relay.o [3]
      .bss                zero     0x2000ffa7      0x1  ikk-relay.o [3]
      .bss                zero     0x2000ffa8      0x1  ikk-uart.o [3]
      .bss                zero     0x2000ffa9      0x1  ikk-uart.o [3]
      .bss                zero     0x2000ffaa      0x1  ikk-uart.o [3]
      .bss                zero     0x2000ffab      0x1  ikk-uart.o [3]
      .bss                zero     0x2000ffac      0x1  ikk-uart.o [3]
      .bss                zero     0x2000ffad      0x1  ikk-uart.o [3]
      .bss                zero     0x2000ffae      0x1  ikk-user.o [2]
      .bss                zero     0x2000ffaf      0x1  ikk-user.o [2]
      .bss                zero     0x2000ffb0      0x1  ikk-user.o [2]
      .bss                zero     0x2000ffb1      0x1  ikk-user.o [2]
      .bss                zero     0x2000ffb2      0x1  ikk-user.o [2]
      .bss                zero     0x2000ffb3      0x1  ikk-user.o [2]
      .bss                zero     0x2000ffb4      0x1  ikk-user.o [2]
      .bss                zero     0x2000ffb5      0x1  ikk-user.o [2]
      .bss                zero     0x2000ffb6      0x1  ikk-user.o [2]
      .bss                zero     0x2000ffb7      0x1  ikk-user.o [2]
      .bss                zero     0x2000ffb8      0x1  ikk-user.o [2]
      .bss                zero     0x2000ffb9      0x1  ikk-user.o [2]
      .bss                zero     0x2000ffba      0x1  ikk-user.o [2]
      .bss                zero     0x2000ffbb      0x1  ikk-user.o [2]
      .bss                zero     0x2000ffbc      0x1  ikk-user.o [2]
      .bss                zero     0x2000ffbd      0x1  ikk-user.o [2]
      .bss                zero     0x2000ffbe      0x1  ikk-user.o [2]
      .bss                zero     0x2000ffbf      0x1  ikk-user.o [2]
      .bss                zero     0x2000ffc0      0x1  ikk-user.o [2]
      .bss                zero     0x2000ffc1      0x1  ikk-user.o [2]
      .bss                zero     0x2000ffc2      0x1  ikk-user.o [2]
      .bss                zero     0x2000ffc3      0x1  ikk-user.o [2]
      .bss                zero     0x2000ffc4      0x1  ikk-user.o [2]
      .bss                zero     0x2000ffc5      0x1  ikk-user.o [2]
      .bss                zero     0x2000ffc6      0x1  ikk-user.o [2]
      .bss                zero     0x2000ffc7      0x1  ikk-user.o [2]
      .bss                zero     0x2000ffc8      0x1  ikk-user.o [2]
      .bss                zero     0x2000ffc9      0x1  ikk-user.o [2]
      .bss                zero     0x2000ffca      0x1  command-interpreter2.o [1]
      .bss                zero     0x2000ffcb      0x1  command-interpreter2.o [1]
      .bss                zero     0x2000ffcc      0x1  ember-configuration.o [1]
      .bss                zero     0x2000ffcd      0x1  ember-configuration.o [1]
      .bss                zero     0x2000ffce      0x1  ember-configuration.o [1]
      .bss                zero     0x2000ffcf      0x1  ember-configuration.o [1]
      .bss                zero     0x2000ffd0      0x1  ember-configuration.o [1]
      .bss                zero     0x2000ffd1      0x1  ember-configuration.o [1]
      .bss                zero     0x2000ffd2      0x1  ember-configuration.o [1]
      .bss                zero     0x2000ffd3      0x1  ember-configuration.o [1]
      .bss                zero     0x2000ffd4      0x1  security-address-cache.o [1]
      .bss                zero     0x2000ffd5      0x1  security-address-cache.o [1]
      .bss                zero     0x2000ffd6      0x1  security-address-cache.o [1]
      .bss                zero     0x2000ffd7      0x1  zigbee-device-common.o [1]
      .bss                zero     0x2000ffd8      0x1  ember-multi-network-stub.o [66]
      .bss                zero     0x2000ffd9      0x1  zigbee-dispatch.o [73]
      .bss                zero     0x2000ffda      0x1  association.o [73]
      .bss                zero     0x2000ffdb      0x1  zigbee-stack.o [73]
      .bss                zero     0x2000ffdc      0x1  application-support.o [73]
      .bss                zero     0x2000ffdd      0x1  application-support.o [73]
      .bss                zero     0x2000ffde      0x1  lower-mac-rail-802.15.4.o [73]
      .bss                zero     0x2000ffdf      0x1  lower-mac-rail-802.15.4.o [73]
      .bss                zero     0x2000ffe0      0x1  child-handling.o [73]
      .bss                zero     0x2000ffe1      0x1  aps-keys-transient.o [73]
      .bss                zero     0x2000ffe2      0x2  aps-keys.o [73]
      .bss                zero     0x2000ffe4      0x1  mfglib.o [65]
      .bss                zero     0x2000ffe5      0x1  network.o [73]
      .bss                zero     0x2000ffe6      0x1  upper-mac.o [73]
      .bss                zero     0x2000ffe7      0x1  neighbor.o [73]
      .bss                zero     0x2000ffe8      0x1  random-id.o [73]
      .bss                zero     0x2000ffe9      0x1  multi-pan-common.o [67]
      .bss                zero     0x2000ffea      0x1  route-discovery.o [73]
      .bss                zero     0x2000ffeb      0x1  zigbee-mac-header.o [73]
      .bss                zero     0x2000ffec      0x1  unicast-table.o [73]
                                 - 0x2000fff0   0x74e8


*******************************************************************************
*** INIT TABLE
***

          Address     Size
          -------     ----
Zero (__iar_zero_init3)
    2 destination ranges, total size 0x607d:
          0x20002900    0x20
          0x20009f90  0x605d

Copy/lz77 (__iar_lz77_init_single3)
    1 source range, total size 0x135 (95% of destination):
          0x00004334   0x135
    1 destination range, total size 0x144:
          0x20009468   0x144

Copy/lz77 (__iar_lz77_init_single3)
    1 source range, total size 0x427 (44% of destination):
          0x0003ff24   0x427
    1 destination range, total size 0x951:
          0x200095ac   0x951

Copy/lz77 (__iar_lz77_init_single3)
    1 source range, total size 0x8 (5% of destination):
          0x00040394     0x8
    1 destination range, total size 0x8c:
          0x20009f00    0x8c



*******************************************************************************
*** MODULE SUMMARY
***

    Module                                      ro code  rw code  ro data  rw data
    ------                                      -------  -------  -------  -------
D:\simplicity studio5\s5\KKHumanBody\IAR ARM - Default: [1]
    call-command-handler.o                          306
    callback-stub.o                                 226
    command-interpreter2.o                        1 710               363      163
    crc.o                                            38
    ember-base-configuration.o                        6
    ember-configuration.o                            62                61   10 703
    random.o                                         80                 1        4
    security-address-cache.o                        156                          3
    token-def.o                                                     1 366
    zigbee-device-common.o                           28                 1        2
    zigbee-device-library.o                         396
    znet-bookkeeping.o                               98
    znet-cli.o                                                         20
    ------------------------------------------------------------------------------
    Total:                                        3 106             1 812   10 875

D:\simplicity studio5\s5\KKHumanBody\IAR ARM - Default\00ikonke-app: [2]
    ikk-p824m.o                                      60
    ikk-user.o                                   10 434             5 577      287
    ------------------------------------------------------------------------------
    Total:                                       10 494             5 577      287

D:\simplicity studio5\s5\KKHumanBody\IAR ARM - Default\00ikonke-app\driver: [3]
    ikk-adc.o                                     1 104               360      212
    ikk-button.o                                  1 104               428      742
    ikk-led.o                                       876                80      720
    ikk-pwm.o                                       236                 9      148
    ikk-relay.o                                     460                15      634
    ikk-timer.o                                     384                70       84
    ikk-uart.o                                    1 412               270    5 868
    ------------------------------------------------------------------------------
    Total:                                        5 576             1 232    8 408

D:\simplicity studio5\s5\KKHumanBody\IAR ARM - Default\00ikonke-app\general: [4]
    ikk-cluster.o                                 1 480               444      358
    ikk-command.o                                   924               200
    ikk-common-utils.o                              716                24      280
    ikk-factory-test.o                            2 388             1 052       64
    ikk-network.o                                 4 164             1 972      240
    ikk-opt-tunnel.o                              2 572             1 252       49
    ikk-ota.o                                       312               184        7
    ikk-tick-handler.o                               56                          8
    ------------------------------------------------------------------------------
    Total:                                       12 612             5 128    1 006

D:\simplicity studio5\s5\KKHumanBody\IAR ARM - Default\00ikonke-app\tools: [5]
    SEGGER_RTT.o                                    794                20    4 280
    ikk-rtt.o                                       712               240    1 656
    ------------------------------------------------------------------------------
    Total:                                        1 506               260    5 936

D:\simplicity studio5\s5\KKHumanBody\IAR ARM - Default\address-table: [6]
    ------------------------------------------------------------------------------
    Total:

D:\simplicity studio5\s5\KKHumanBody\IAR ARM - Default\antenna-stub: [7]
    antenna-stub.o                                   52                 8
    ------------------------------------------------------------------------------
    Total:                                           52                 8

D:\simplicity studio5\s5\KKHumanBody\IAR ARM - Default\basic: [8]
    basic.o                                          40
    ------------------------------------------------------------------------------
    Total:                                           40

D:\simplicity studio5\s5\KKHumanBody\IAR ARM - Default\ccm-encryption: [9]
    ccm-star.o                                      452                         24
    ------------------------------------------------------------------------------
    Total:                                          452                         24

D:\simplicity studio5\s5\KKHumanBody\IAR ARM - Default\coexistence-stub\EFR32: [10]
    coexistence-802154.o                             16
    ------------------------------------------------------------------------------
    Total:                                           16

D:\simplicity studio5\s5\KKHumanBody\IAR ARM - Default\counters: [11]
    counters-soc.o                                  348                36      336
    ------------------------------------------------------------------------------
    Total:                                          348                36      336

D:\simplicity studio5\s5\KKHumanBody\IAR ARM - Default\diagnostic-server: [12]
    diagnostic-server-soc.o                         170               237
    ------------------------------------------------------------------------------
    Total:                                          170               237

D:\simplicity studio5\s5\KKHumanBody\IAR ARM - Default\eeprom: [13]
    eeprom-afv2.o                                     4
    eeprom.o                                        852                45       27
    ------------------------------------------------------------------------------
    Total:                                          856                45       27

D:\simplicity studio5\s5\KKHumanBody\IAR ARM - Default\efr32: [14]
    assert-crash-handlers.o                         492                20
    cstartup-common.o                               164               288  363 046
    diagnostic.o                                    924             3 253
    faults-v7m.o                                    140
    isr-stubs.o                                       4
    led.o                                             4
    mfg-token.o                                     566                38    8 192
    micro-common.o                                  148                12
    micro.o                                       1 444               386        4
    sleep-efm32.o                                   452                31       25
    token.o                                         752                 8        1
    ------------------------------------------------------------------------------
    Total:                                        5 090             4 036  371 268

D:\simplicity studio5\s5\KKHumanBody\IAR ARM - Default\ember-minimal-printf: [15]
    ember-printf.o                                  694                36
    ------------------------------------------------------------------------------
    Total:                                          694                36

D:\simplicity studio5\s5\KKHumanBody\IAR ARM - Default\emdrv: [16]
    dmadrv.o                                      1 048                52      385
    gpiointerrupt.o                                 192                         64
    sl_sleeptimer.o                               1 444                         21
    sl_sleeptimer_hal_rtcc.o                        414                16        1
    tempdrv.o                                       416                         97
    uartdrv.o                                     3 268                36       41
    ustimer.o                                       612                32        9
    ------------------------------------------------------------------------------
    Total:                                        7 394               136      618

D:\simplicity studio5\s5\KKHumanBody\IAR ARM - Default\emlib: [17]
    em_cmu.o                                      1 932
    em_core.o                                       222
    em_emu.o                                        132
    em_gpio.o                                       320
    em_ldma.o                                       392
    em_msc.o                                         44      324      309
    em_rmu.o                                         28
    em_rtcc.o                                       228
    em_se.o                                         284                76
    em_system.o                                      28
    em_timer.o                                      454
    em_usart.o                                      644
    em_wdog.o                                       170
    system_efr32mg21.o                              324                 7       16
    ------------------------------------------------------------------------------
    Total:                                        5 202      324      392       16

D:\simplicity studio5\s5\KKHumanBody\IAR ARM - Default\external-generated-files: [18]
    bootloader-interface-app.o                      396                28      584
    bootloader-interface.o                                             64
    btl_interface.o                                  64                          1
    ------------------------------------------------------------------------------
    Total:                                          460                92      585

D:\simplicity studio5\s5\KKHumanBody\IAR ARM - Default\form-and-join: [19]
    form-and-join-afv2.o                             14                          8
    form-and-join-node-adapter.o                     84                          2
    form-and-join.o                                 826                         20
    ------------------------------------------------------------------------------
    Total:                                          924                         30

D:\simplicity studio5\s5\KKHumanBody\IAR ARM - Default\generic-interrupt-control\EFR32: [20]
    ------------------------------------------------------------------------------
    Total:

D:\simplicity studio5\s5\KKHumanBody\IAR ARM - Default\hal-library\EFR32: [21]
    hal-config.o                                    224                77        2
    sl_mpu.o                                        248                          4
    sl_power_manager.o                              948                         50
    sl_power_manager_hal_s2.o                       520                         11
    sl_slist.o                                       16
    ------------------------------------------------------------------------------
    Total:                                        1 956                77       67

D:\simplicity studio5\s5\KKHumanBody\IAR ARM - Default\hal-library\EFR32_2: [22]
    sl_hfxo_manager.o                               222                         58
    sl_hfxo_manager_hal_s2.o                        644                 4       35
    ------------------------------------------------------------------------------
    Total:                                          866                 4       93

D:\simplicity studio5\s5\KKHumanBody\IAR ARM - Default\heartbeat: [23]
    heartbeat.o                                      32                          4
    ------------------------------------------------------------------------------
    Total:                                           32                          4

D:\simplicity studio5\s5\KKHumanBody\IAR ARM - Default\ias-zone-server: [24]
    ias-zone-server.o                             1 020                16        9
    ------------------------------------------------------------------------------
    Total:                                        1 020                16        9

D:\simplicity studio5\s5\KKHumanBody\IAR ARM - Default\identify: [25]
    identify.o                                      292                          4
    ------------------------------------------------------------------------------
    Total:                                          292                          4

D:\simplicity studio5\s5\KKHumanBody\IAR ARM - Default\idle-sleep: [26]
    idle-sleep-soc.o                                 62
    idle-sleep.o                                    208                          3
    ------------------------------------------------------------------------------
    Total:                                          270                          3

D:\simplicity studio5\s5\KKHumanBody\IAR ARM - Default\mbedtls\EFR32: [27]
    se_aes.o                                        260                68
    sl_mbedtls.o                                      4
    sl_se_management.o                               24
    sl_se_manager.o                                  12
    ------------------------------------------------------------------------------
    Total:                                          300                68

D:\simplicity studio5\s5\KKHumanBody\IAR ARM - Default\network-steering: [28]
    network-steering-soc.o                          100                44        2
    network-steering.o                            1 532             1 103      105
    ------------------------------------------------------------------------------
    Total:                                        1 632             1 147      107

D:\simplicity studio5\s5\KKHumanBody\IAR ARM - Default\nvm3: [29]
    nvm3_lock.o                                      30                 5      180
    ------------------------------------------------------------------------------
    Total:                                           30                 5      180

D:\simplicity studio5\s5\KKHumanBody\IAR ARM - Default\nvm3\EFR32: [30]
    nvm3_default.o                                                     16   67 252
    nvm3_hal_flash.o                                248                28
    ------------------------------------------------------------------------------
    Total:                                          248                44   67 252

D:\simplicity studio5\s5\KKHumanBody\IAR ARM - Default\ota-bootload: [31]
    ota-bootload-soc.o                               24                20
    ------------------------------------------------------------------------------
    Total:                                           24                20

D:\simplicity studio5\s5\KKHumanBody\IAR ARM - Default\ota-client: [32]
    ota-client-page-request.o                        32
    ota-client-signature-verify.o                     4
    ota-client.o                                  3 332                38       40
    ------------------------------------------------------------------------------
    Total:                                        3 368                38       40

D:\simplicity studio5\s5\KKHumanBody\IAR ARM - Default\ota-client-policy: [33]
    ota-client-policy.o                             158
    ------------------------------------------------------------------------------
    Total:                                          158

D:\simplicity studio5\s5\KKHumanBody\IAR ARM - Default\ota-common: [34]
    ota-common.o                                    218                33       10
    ------------------------------------------------------------------------------
    Total:                                          218                33       10

D:\simplicity studio5\s5\KKHumanBody\IAR ARM - Default\ota-storage-common: [35]
    ota-storage-common.o                            412                16
    ------------------------------------------------------------------------------
    Total:                                          412                16

D:\simplicity studio5\s5\KKHumanBody\IAR ARM - Default\ota-storage-simple: [36]
    ota-storage-simple.o                            786                 4       22
    ------------------------------------------------------------------------------
    Total:                                          786                 4       22

D:\simplicity studio5\s5\KKHumanBody\IAR ARM - Default\ota-storage-simple-eeprom: [37]
    ota-storage-eeprom-page-erase.o                 720                34       15
    ota-storage-eeprom.o                            584                52        8
    ------------------------------------------------------------------------------
    Total:                                        1 304                86       23

D:\simplicity studio5\s5\KKHumanBody\IAR ARM - Default\packet-handoff: [38]
    packet-handoff.o                                  8
    ------------------------------------------------------------------------------
    Total:                                            8

D:\simplicity studio5\s5\KKHumanBody\IAR ARM - Default\reporting: [39]
    reporting-default-configuration.o               260               200
    reporting.o                                   2 720               116      370
    ------------------------------------------------------------------------------
    Total:                                        2 980               316      370

D:\simplicity studio5\s5\KKHumanBody\IAR ARM - Default\scan-dispatch: [40]
    scan-dispatch.o                                 380                        163
    ------------------------------------------------------------------------------
    Total:                                          380                        163

D:\simplicity studio5\s5\KKHumanBody\IAR ARM - Default\serial: [41]
    com.o                                         2 504               236    1 232
    ------------------------------------------------------------------------------
    Total:                                        2 504               236    1 232

D:\simplicity studio5\s5\KKHumanBody\IAR ARM - Default\serial\EFR32: [42]
    serial.o                                        232                76
    ------------------------------------------------------------------------------
    Total:                                          232                76

D:\simplicity studio5\s5\KKHumanBody\IAR ARM - Default\simple-main: [43]
    simple-main.o                                    22
    ------------------------------------------------------------------------------
    Total:                                           22

D:\simplicity studio5\s5\KKHumanBody\IAR ARM - Default\strong-random: [44]
    strong-random-api.o                              16
    ------------------------------------------------------------------------------
    Total:                                           16

D:\simplicity studio5\s5\KKHumanBody\IAR ARM - Default\update-tc-link-key: [45]
    update-tc-link-key.o                            256               138       13
    ------------------------------------------------------------------------------
    Total:                                          256               138       13

D:\simplicity studio5\s5\KKHumanBody\IAR ARM - Default\zcl-framework-core: [46]
    af-event.o                                      390               163      399
    af-main-common.o                              1 840               372      512
    af-main-soc.o                                 1 400               137        1
    af-security-common.o                              2
    af-trust-center.o                                84                          1
    attribute-size.o                                108                48
    attribute-storage.o                           3 184             1 020      677
    attribute-table.o                             1 020
    client-api.o                                    588               168       14
    core-cli.o                                       28
    crypto-state.o                                   16                          1
    message.o                                       344                24      100
    multi-network.o                                  92                          4
    network-cli.o                                                                1
    print-formatter.o                                64
    print.o                                         116                          3
    process-cluster-message.o                        96                52
    process-global-message.o                      1 220                72        1
    service-discovery-common.o                    1 092                         97
    service-discovery-soc.o                          92
    time-util.o                                       8
    util.o                                        2 144               389       69
    zcl-cli.o                                       316                48      102
    ------------------------------------------------------------------------------
    Total:                                       14 244             2 493    1 982

command line: [47]
    ------------------------------------------------------------------------------
    Total:

binding-table-library.a: [48]
    binding-table.o                               1 248                 1
    zdo-binding-table.o                             452
    ------------------------------------------------------------------------------
    Total:                                        1 700                 1

cbke-163k1-stub-library.a: [49]
    cbke-crypto-engine-163k1-stub.o                   6                 1
    ------------------------------------------------------------------------------
    Total:                                            6                 1

cbke-283k1-stub-library.a: [50]
    cbke-crypto-engine-283k1-stub.o                   6                 1
    ------------------------------------------------------------------------------
    Total:                                            6                 1

cbke-library-dsa-sign-stub.a: [51]
    cbke-crypto-engine-dsa-sign-stub.o                4                 1
    ------------------------------------------------------------------------------
    Total:                                            4                 1

cbke-library-dsa-verify-283k1-stub.a: [52]
    cbke-crypto-engine-dsa-verify-283k1-stub.o                          1
    ------------------------------------------------------------------------------
    Total:                                                              1

cbke-library-dsa-verify-stub.a: [53]
    cbke-crypto-engine-dsa-verify-stub.o                                1
    ------------------------------------------------------------------------------
    Total:                                                              1

cbke-stub-library.a: [54]
    cbke-crypto-engine-stub.o                        14                 1
    ------------------------------------------------------------------------------
    Total:                                           14                 1

debug-basic-stub-library.a: [55]
    debug-platform-stub.o                             4
    debug-stub.o                                      6
    ------------------------------------------------------------------------------
    Total:                                           10

debug-extended-stub-library.a: [56]
    debug-extended-stub.o                             6
    ------------------------------------------------------------------------------
    Total:                                            6

dl7M_tln.a: [57]
    exit.o                                            4
    low_level_init.o                                  4
    rand.o                                          224                 8      140
    srand.o                                          32
    tolower.o                                        12
    xtls.o                                            2
    ------------------------------------------------------------------------------
    Total:                                          278                 8      140

end-device-bind-stub-library.a: [58]
    end-device-bind-stub.o                            8                 1        8
    ------------------------------------------------------------------------------
    Total:                                            8                 1        8

gp-stub-library.a: [59]
    gp-stub.o                                        20                         24
    ------------------------------------------------------------------------------
    Total:                                           20                         24

hal-library.a: [60]
    flash.o                                         104
    micro-common-internal.o                          88
    micro-internal.o                                 76
    startup_efr32mg21.o                              26               308
    system-timer.o                                  300                         28
    ------------------------------------------------------------------------------
    Total:                                          594               308       28

install-code-library.a: [61]
    install-code-tokens.o                           108                 1
    ------------------------------------------------------------------------------
    Total:                                          108                 1

libnvm3_CM33_iar.a: [62]
    nvm3.o                                        7 302                          4
    nvm3_cache.o                                    578
    nvm3_object.o                                   442
    nvm3_page.o                                     578
    nvm3_utils.o                                     62
    ------------------------------------------------------------------------------
    Total:                                        8 962                          4

librail_efr32xg21_iar_release.a: [63]
    generic_efr32xg21_seq.o                                         6 112
    generic_phy.o                                 4 032                         46
    ieee802154_efr32xg21_configurator_out.o                         1 167        8
    pa_conversions_efr32.o                          420                         40
    pa_curves_efr32.o                                                 236
    rail_assert.o                                    24                 4        8
    rail_autoack.o                                  176
    rail_ble_rf_hal.o                                18                24
    rail_calibration.o                              150
    rail_data.o                                     228                        512
    rail_ieee802154.o                               404
    rail_ieee802154_rf_hal.o                        552                24
    rail_mfm_rf_hal.o                                 4
    rail_power_manager.o                            720                26       68
    rail_rf.o                                     1 162                 7       16
    rail_rf_hal.o                                 6 012                18       72
    rail_rssi.o                                      28
    rail_rx.o                                        58
    rail_singleprotocol.o                           396                         12
    rail_timer.o                                      8
    rail_tx.o                                       208
    rfhal_antenna.o                                 200                          1
    rfhal_bufc.o                                  1 616                        144
    rfhal_ircal.o                                   232
    rfhal_module.o                                   40
    rfhal_pa.o                                    1 996                36       80
    rfhal_protimer.o                              1 358                         24
    rfhal_pti.o                                     268                         21
    rfhal_radio.o                                 1 532                 7       88
    rfhal_rand.o                                    292
    rfhal_rtccsync.o                                384
    rfhal_synth.o                                   952                         12
    rfhal_tempcal.o                                  52
    rfhal_timings.o                                 612                          4
    seq_globals.o                                    84
    ------------------------------------------------------------------------------
    Total:                                       24 218             7 661    1 156

m7M_tls.a: [64]
    DblDiv.o                                        598
    DblMul.o                                        418
    DblToI32.o                                       44
    I32ToDbl.o                                       28
    fpinit_M.o                                       34
    ------------------------------------------------------------------------------
    Total:                                        1 122

mfglib-library.a: [65]
    mfglib.o                                        464                          1
    ------------------------------------------------------------------------------
    Total:                                          464                          1

multi-network-stub-library.a: [66]
    ember-multi-network-stub.o                      720                 1        9
    ------------------------------------------------------------------------------
    Total:                                          720                 1        9

multi-pan-stub-library.a: [67]
    multi-pan-common.o                              294                          1
    multi-pan-stub.o                                166                 1
    ------------------------------------------------------------------------------
    Total:                                          460                 1        1

packet-validate-library.a: [68]
    packet-validate.o                               720                 1        1
    ------------------------------------------------------------------------------
    Total:                                          720                 1        1

rt7M_tl.a: [69]
    ABImemclr.o                                       6
    ABImemclr4.o                                      6
    ABImemcpy_unaligned.o                           118
    ABImemmove_unaligned.o                          120
    ABImemset.o                                     102
    ABImemset48.o                                    58
    I64DivMod.o                                     238
    I64DivZer.o                                       2
    I64Shl.o                                         34
    U64Shr.o                                         30
    XXexit.o                                         12
    cexit.o                                          10
    cmain.o                                          26
    cstartup_M.o                                     12
    data_init.o                                      40
    lz77_init_single.o                              120
    memcmp_unaligned.o                               98
    strcmp_unaligned.o                               66
    strlen.o                                         54
    zero_init3.o                                     64
    ------------------------------------------------------------------------------
    Total:                                        1 216

security-library-link-keys-stub.a: [70]
    aps-keys-full-stub.o                             18                 1
    ------------------------------------------------------------------------------
    Total:                                           18                 1

sim-eeprom2-to-nvm3-upgrade-stub-library.a: [71]
    sim-eeprom2-to-nvm3-upgrade-stub.o                4
    ------------------------------------------------------------------------------
    Total:                                            4

source-route-stub-library.a: [72]
    source-route-stub.o                              88
    ------------------------------------------------------------------------------
    Total:                                           88

zigbee-pro-stack.a: [73]
    address-table.o                               1 028
    aes-efm32.o                                     136                         36
    aes-mmo.o                                       356
    application-support.o                         2 924                 6       14
    aps-encryption.o                              1 508                          4
    aps-keys-transient.o                          1 352                          9
    aps-keys.o                                    1 936                          3
    aps-retry.o                                   2 660                         15
    aps-security.o                                3 984                 1       19
    association.o                                 6 232                 3       67
    beacon-handling.o                             2 600                 3       31
    broadcast.o                                     596                          5
    buffer-management.o                           2 092                 2       36
    buffer-queue.o                                  398
    child-aging.o                                   528
    child-handling.o                                996                 1       25
    child.o                                       2 136
    command.o                                       296
    crypto.o                                      1 110
    ember-duty-cycle-stub.o                           2
    ember-library.o                                 148                 1
    ember-multi-phy-stub.o                            8
    ember-stack-common.o                            600
    eui64.o                                          24                          8
    event-control.o                                 604                          6
    hmac.o                                           98
    indirect-queue.o                              1 788                         48
    jit.o                                           856                         18
    leave.o                                       1 174                 1       14
    legacy-packet-buffer.o                          656
    lower-mac-rail-802.15.4.o                     5 034               200      610
    mac-child.o                                   1 360                         42
    mac-command.o                                 1 020                 1        2
    mac-dispatch.o                                  640                          2
    mac-flat-header.o                               176                 2        4
    mac-header.o                                    976                          8
    mac-packet-header.o                             558
    management.o                                    948                 1        2
    multi-network.o                                 140                 1        5
    neighbor-exchange.o                           1 064
    neighbor.o                                    2 480                 1       11
    network.o                                     7 032                 1       36
    phy-util.o                                       18
    random-id.o                                   1 068                          1
    retry.o                                         814                         16
    route-discovery.o                             2 098                 1        2
    route-error.o                                   380
    route-table.o                                 1 484                 1        4
    scan.o                                        1 180                 4       60
    security-config-mfg.o                           112
    store-forward.o                                 584                         16
    symbol-timer.o                                    2
    token-cache.o                                   392                          3
    trust-center-util.o                           1 716                 1        2
    unicast-table.o                                 160                         33
    upper-mac.o                                   2 604                        377
    zdo-channel.o                                   996                 1       21
    zigbee-device-util.o                          2 392                 2       11
    zigbee-device.o                               2 876                 4       12
    zigbee-dispatch.o                               248                         13
    zigbee-mac-header.o                             280                 1       15
    zigbee-neighbor.o                               572
    zigbee-packet-header.o                        1 664
    zigbee-scan.o                                   850                 1       33
    zigbee-stack.o                                1 280                92      209
    zigbee-upper-mac.o                              592
    ------------------------------------------------------------------------------
    Total:                                       84 616               333    1 908

zigbee-r22-support-stub-library.a: [74]
    enhanced-beacon-request-stub.o                   50                 1        8
    mac-info-element-parsing-stub.o                  52
    zdo-r22-stub.o                                   14
    ------------------------------------------------------------------------------
    Total:                                          116                 1        8

zll-stub-library.a: [75]
    zll-stubs.o                                      42                 1       16
    ------------------------------------------------------------------------------
    Total:                                           42                 1       16

    Gaps                                             92                 6
    Linker created                                   16                72
----------------------------------------------------------------------------------
    Grand Total:                                214 178      324   32 247  474 294


*******************************************************************************
*** ENTRY LIST
***

Entry                      Address     Size  Type      Object
-----                      -------     ----  ----      ------
.bss$$Base              0x20009f90            --   Gb  - Linker created -
.bss$$Limit             0x2000fff0            --   Gb  - Linker created -
.data_init$$Base        0x0003ff24            --   Gb  - Linker created -
.data_init$$Limit       0x0004034b            --   Gb  - Linker created -
.iar.init_table$$Base   0x0004034c            --   Gb  - Linker created -
.iar.init_table$$Limit  0x00040394            --   Gb  - Linker created -
.noinitlegacy$$Base     0x00000000            --   Gb  - Linker created -
.text$$Base             0x0000446c            --   Gb  - Linker created -
.text$$Limit            0x0003890e            --   Gb  - Linker created -
.textrw$$Base           0x20009468            --   Gb  - Linker created -
.textrw$$Length         0x00000144            --   Gb  - Linker created -
.textrw$$Limit          0x200095ac            --   Gb  - Linker created -
?main                   0x000387bd           Code  Gb  cmain.o [69]
ACMP0_IRQHandler        0x00038795           Code  Wk  isr-stubs.o [14]
ACMP1_IRQHandler        0x00038795           Code  Wk  isr-stubs.o [14]
AES_IRQHandler          0x00038795           Code  Wk  isr-stubs.o [14]
AGC_IRQHandler          0x0003621f     0x32  Code  Gb  generic_phy.o [63]
ALIGN_CSTACK$$Base      0x20008b08            --   Gb  - Linker created -
ALIGN_CSTACK$$Limit     0x20009468            --   Gb  - Linker created -
ALIGN_EMHEAP$$Base      0x200000a0            --   Gb  - Linker created -
ALIGN_EMHEAP$$Limit     0x20002900            --   Gb  - Linker created -
APPRO_block$$Base       0x00004200            --   Gb  - Linker created -
APPRO_block$$Limit      0x0004039c            --   Gb  - Linker created -
APPRW_block$$Base       0x20008b08            --   Gb  - Linker created -
APPRW_block$$Limit      0x2000fff0            --   Gb  - Linker created -
ARM_MPU_Disable         0x0002ecd7     0x1c  Code  Lc  sl_mpu.o [21]
ARM_MPU_Enable          0x0002ecbd     0x1a  Code  Lc  sl_mpu.o [21]
ARM_MPU_SetMemAttr      0x0002ecf3     0x2a  Code  Lc  sl_mpu.o [21]
ARM_MPU_SetRegion       0x0002ed1d      0xa  Code  Lc  sl_mpu.o [21]
BUFC_IRQHandler         0x000361e3      0x2  Code  Gb  generic_phy.o [63]
BURTC_IRQHandler        0x00038795           Code  Wk  isr-stubs.o [14]
BUS_RegBitWrite         0x000305d1     0x16  Code  Lc  em_gpio.o [17]
BUS_RegMaskedWrite      0x000305e7     0x20  Code  Lc  em_gpio.o [17]
BusFault_Handler        0x00038785           Code  Gb  faults-v7m.o [14]
CMU_ClockDivGet         0x00012665     0x30  Code  Gb  em_cmu.o [17]
CMU_ClockDivSet         0x00012695     0x4a  Code  Gb  em_cmu.o [17]
CMU_ClockFreqGet        0x00012535     0xbe  Code  Gb  em_cmu.o [17]
CMU_ClockSelectGet      0x000126e1     0xc0  Code  Gb  em_cmu.o [17]
CMU_ClockSelectSet      0x000127a1    0x1a0  Code  Gb  em_cmu.o [17]
CMU_HFXOInit            0x00012983    0x108  Code  Gb  em_cmu.o [17]
CMU_IRQHandler          0x00038795           Code  Wk  isr-stubs.o [14]
CMU_PrescToLog2         0x000213ad      0xc  Code  Lc  sl_sleeptimer_hal_rtcc.o [16]
CMU_UpdateWaitStates    0x00012a8b      0xa  Code  Gb  em_cmu.o [17]
COM_DeInit              0x0002225f     0x5e  Code  Gb  com.o [41]
COM_FlushRx             0x00022529     0x42  Code  Gb  com.o [41]
COM_ForceWriteData      0x00022455     0x3a  Code  Gb  com.o [41]
COM_Init                0x00022123    0x13c  Code  Gb  com.o [41]
COM_InternalPowerDown   0x0002201f     0x64  Code  Gb  com.o [41]
COM_InternalPowerUp     0x00022083     0x4e  Code  Gb  com.o [41]
COM_InternalTxIsIdle    0x000220d7     0x4c  Code  Gb  com.o [41]
COM_PrintfVarArg        0x00022375     0x2a  Code  Gb  com.o [41]
COM_RX_IRQHandler       0x00021f35     0x7e  Code  Lc  com.o [41]
COM_ReadAvailable       0x000222bd     0x16  Code  Gb  com.o [41]
COM_ReadByte            0x000222d3     0x96  Code  Gb  com.o [41]
COM_Unused              0x00022579     0x24  Code  Gb  com.o [41]
COM_WaitSend            0x000224d9     0x50  Code  Gb  com.o [41]
COM_WriteData           0x000223a1     0xb4  Code  Gb  com.o [41]
COM_WriteUsed           0x00022369      0xc  Code  Gb  com.o [41]
CORE_AtomicDisableIrq   0x0000bee1      0x8  Code  Wk  em_core.o [17]
CORE_AtomicEnableIrq    0x00005d7d      0x8  Code  Wk  em_core.o [17]
CORE_CriticalDisableIrq
                        0x00022661      0x4  Code  Wk  em_core.o [17]
CORE_CriticalEnableIrq  0x00022665      0x4  Code  Wk  em_core.o [17]
CORE_EnterAtomic        0x000059fb      0xc  Code  Wk  em_core.o [17]
CORE_EnterCritical      0x0002f45f      0x8  Code  Wk  em_core.o [17]
CORE_ExitAtomic         0x00005a07      0x6  Code  Wk  em_core.o [17]
CORE_ExitCritical       0x0002f467      0x6  Code  Wk  em_core.o [17]
CORE_IrqIsBlocked       0x00034969     0x4c  Code  Wk  em_core.o [17]
CORE_IrqIsDisabled      0x00005d25     0x1a  Code  Wk  em_core.o [17]
CORE_NvicIRQDisabled    0x0002263b     0x18  Code  Gb  em_core.o [17]
CSTACK$$Base            0x20008b08            --   Gb  - Linker created -
CSTACK$$Limit           0x20009468            --   Gb  - Linker created -
CheckParams             0x0002fb4d     0x20  Code  Lc  uartdrv.o [16]
CheckSum                0x00028ea7     0x14  Code  Gb  ikk-command.o [4]
ConfigGpio              0x0002fb6d     0x92  Code  Lc  uartdrv.o [16]
DEBUG_CHANNEL$$Base     0x00000000            --   Gb  - Linker created -
DEBUG_CHANNEL$$Limit    0x00000000            --   Gb  - Linker created -
DLIB_PERTHREAD_INITIALIZED_DATA$$Base
                        0x20009f00            --   Gb  - Linker created -
DLIB_PERTHREAD_INITIALIZED_DATA$$Limit
                        0x20009f8c            --   Gb  - Linker created -
DMADRV_AllocateChannel  0x00034491     0x4e  Code  Gb  dmadrv.o [16]
DMADRV_DeInit           0x000344df     0x36  Code  Gb  dmadrv.o [16]
DMADRV_FreeChannel      0x0003451d     0x34  Code  Gb  dmadrv.o [16]
DMADRV_Init             0x00034551     0x52  Code  Gb  dmadrv.o [16]
DMADRV_MemoryPeripheral
                        0x000345a3      0xc  Code  Gb  dmadrv.o [16]
DMADRV_PauseTransfer    0x000345e5     0x1c  Code  Gb  dmadrv.o [16]
DMADRV_PeripheralMemory
                        0x000345af      0xa  Code  Gb  dmadrv.o [16]
DMADRV_ResumeTransfer   0x00034601     0x1c  Code  Gb  dmadrv.o [16]
DMADRV_StopTransfer     0x00034631     0x20  Code  Gb  dmadrv.o [16]
DMADRV_TransferActive   0x00034663     0x34  Code  Gb  dmadrv.o [16]
DMADRV_TransferRemainingCount
                        0x000346b1     0x24  Code  Gb  dmadrv.o [16]
DPLL0_IRQHandler        0x00038795           Code  Wk  isr-stubs.o [14]
DebugMon_Handler        0x0003878d           Code  Gb  faults-v7m.o [14]
DelayTicksEM1           0x0000bc65     0x5a  Code  Lc  ustimer.o [16]
DelayTicksPolled        0x0000bc43     0x22  Code  Lc  ustimer.o [16]
DequeueBuffer           0x0002f85d     0x36  Code  Lc  uartdrv.o [16]
DisableReceiver         0x0002f8f1     0x14  Code  Lc  uartdrv.o [16]
EMHEAP$$Base            0x200000a0            --   Gb  - Linker created -
EMHEAP$$Length          0x00002860            --   Gb  - Linker created -
EMHEAP$$Limit           0x20002900            --   Gb  - Linker created -
EMUDG_IRQHandler        0x00038795           Code  Wk  isr-stubs.o [14]
EMUSE_IRQHandler        0x00038795           Code  Wk  isr-stubs.o [14]
EMU_EM23PostsleepHook   0x0002f54d     0x38  Code  Gb  sl_power_manager_hal_s2.o [21]
EMU_EM23PresleepHook    0x0002f52f     0x1e  Code  Gb  sl_power_manager_hal_s2.o [21]
EMU_EM4Init             0x00022603     0x10  Code  Gb  em_emu.o [17]
EMU_EnterEM2            0x0002259d     0x12  Code  Gb  em_emu.o [17]
EMU_EnterEM3            0x000225af     0x12  Code  Gb  em_emu.o [17]
EMU_EnterEM4            0x000225dd     0x26  Code  Gb  em_emu.o [17]
EMU_IRQHandler          0x0002eec7      0x2  Code  Gb  tempdrv.o [16]
EMU_Restore             0x000225db      0x2  Code  Gb  em_emu.o [17]
EMU_Save                0x000225d9      0x2  Code  Gb  em_emu.o [17]
EnableReceiver          0x0002f8d5     0x10  Code  Lc  uartdrv.o [16]
EnableTransmitter       0x0002f8c3     0x12  Code  Lc  uartdrv.o [16]
EnqueueBuffer           0x0002f7f7     0x66  Code  Lc  uartdrv.o [16]
FRC_IRQHandler          0x00035cc1    0x4c6  Code  Gb  generic_phy.o [63]
FRC_PRI_IRQHandler      0x000361e1      0x2  Code  Gb  generic_phy.o [63]
FcApplyState            0x0002f799     0x5e  Code  Lc  uartdrv.o [16]
GPIOINT_CallbackRegister
                        0x000348f1     0x18  Code  Gb  gpiointerrupt.o [16]
GPIOINT_IRQDispatcher   0x00034909     0x28  Code  Lc  gpiointerrupt.o [16]
GPIOINT_Init            0x000348d5     0x1c  Code  Gb  gpiointerrupt.o [16]
GPIO_EVEN_IRQHandler    0x00034931      0xe  Code  Gb  gpiointerrupt.o [16]
GPIO_ExtIntConfig       0x00030623     0x5a  Code  Gb  em_gpio.o [17]
GPIO_IntConfig          0x0002f6a9     0x12  Code  Lc  uartdrv.o [16]
GPIO_ODD_IRQHandler     0x0003493f      0xc  Code  Gb  gpiointerrupt.o [16]
GPIO_PinInGet           0x00031129     0x14  Code  Lc  ikk-button.o [3]
GPIO_PinModeSet         0x0003067d     0x60  Code  Gb  em_gpio.o [17]
GPIO_PinOutClear        0x00030607      0xa  Code  Lc  em_gpio.o [17]
GPIO_PinOutClear        0x0002f689      0xc  Code  Lc  uartdrv.o [16]
GPIO_PinOutClear        0x00028619      0xc  Code  Lc  ikk-led.o [3]
GPIO_PinOutSet          0x00030611      0x8  Code  Lc  em_gpio.o [17]
GPIO_PinOutSet          0x0002f695      0xa  Code  Lc  uartdrv.o [16]
GPIO_PinOutSet          0x00028625      0xa  Code  Lc  ikk-led.o [3]
GetTailBuffer           0x0002f893     0x1e  Code  Lc  uartdrv.o [16]
Get_CheckSum            0x00011537     0x18  Code  Gb  ikk-user.o [2]
HEADER_block$$Base      0x00004000            --   Gb  - Linker created -
HEADER_block$$Limit     0x000040ac            --   Gb  - Linker created -
HFRCO0_IRQHandler       0x00038795           Code  Wk  isr-stubs.o [14]
HFRCOEM23_IRQHandler    0x00011da3      0x2  Code  Wk  startup_efr32mg21.o [60]
HFXO00_IRQHandler       0x0003424b      0x2  Code  Gb  sl_hfxo_manager_hal_s2.o [22]
HardFault_Handler       0x00038781           Code  Gb  faults-v7m.o [14]
HwFcGetClearToSendPin   0x0002f705     0x24  Code  Lc  uartdrv.o [16]
HwFcManageClearToSend   0x0002f729     0x70  Code  Lc  uartdrv.o [16]
I2C0_IRQHandler         0x00038795           Code  Wk  isr-stubs.o [14]
I2C1_IRQHandler         0x00038795           Code  Wk  isr-stubs.o [14]
IADC_IRQHandler         0x00038795           Code  Wk  isr-stubs.o [14]
ICACHE0_IRQHandler      0x00038795           Code  Wk  isr-stubs.o [14]
JoinCompleteCallback    0x0000ee81     0x8c  Code  Gb  ikk-user.o [2]
KERNEL0_IRQHandler      0x00038795           Code  Wk  isr-stubs.o [14]
KERNEL1_IRQHandler      0x00038795           Code  Wk  isr-stubs.o [14]
LDMA_DeInit             0x00037db9     0x20  Code  Gb  em_ldma.o [17]
LDMA_EnableChannelRequest
                        0x00037dd9     0x12  Code  Gb  em_ldma.o [17]
LDMA_IRQHandler         0x000346d9     0x60  Code  Gb  dmadrv.o [16]
LDMA_Init               0x00037deb     0x44  Code  Gb  em_ldma.o [17]
LDMA_StartTransfer      0x00037e2f     0x7c  Code  Gb  em_ldma.o [17]
LDMA_StopTransfer       0x00037eab     0x1e  Code  Gb  em_ldma.o [17]
LDMA_TransferRemainingCount
                        0x00037ec9     0x3a  Code  Gb  em_ldma.o [17]
LETIMER0_IRQHandler     0x0001157f      0x2  Code  Wk  startup_efr32mg21.o [60]
LFRCO_IRQHandler        0x00038795           Code  Wk  isr-stubs.o [14]
LFXO_IRQHandler         0x00038795           Code  Wk  isr-stubs.o [14]
LinkKeyUpdateTimerMilliseconds
                        0x20009718      0x4  Data  Lc  update-tc-link-key.o [45]
M33CTI0_IRQHandler      0x00038795           Code  Wk  isr-stubs.o [14]
M33CTI1_IRQHandler      0x00038795           Code  Wk  isr-stubs.o [14]
MODEM_IRQHandler        0x0003621d      0x2  Code  Gb  generic_phy.o [63]
MSC_Deinit              0x00031c61     0x14  Code  Gb  em_msc.o [17]
MSC_ErasePage           0x200094f7     0x38  Code  Gb  em_msc.o [17]
MSC_IRQHandler          0x00038795           Code  Wk  isr-stubs.o [14]
MSC_Init                0x00031c51     0x10  Code  Gb  em_msc.o [17]
MSC_WriteWord           0x20009535     0x5e  Code  Gb  em_msc.o [17]
MemManage_Handler       0x0002edb1      0x4  Code  Gb  sl_mpu.o [21]
MsgSent                 0x00027c9d     0x50  Code  Gb  ikk-uart.o [3]
NMI_Handler             0x00012531           Code  Gb  faults-v7m.o [14]
NVIC_EncodePriority     0x0001ea67     0x32  Code  Lc  micro.o [14]
NWK_AddRssi             0x00029463     0x3c  Code  Gb  ikk-common-utils.o [4]
NWK_DeleteRssiByNodeid  0x000294dd     0x2a  Code  Gb  ikk-common-utils.o [4]
NWK_PopRssi             0x0002949f     0x3e  Code  Lc  ikk-common-utils.o [4]
PRORTC_IRQHandler       0x00037c51     0x1a  Code  Gb  rfhal_rtccsync.o [63]
PRORTC_IRQHandlerOverride
                        0x00038225     0x18  Code  Wk  rfhal_rtccsync.o [63]
PROTIMER_IRQHandler     0x000361e5      0x2  Code  Gb  generic_phy.o [63]
PTI_AuxdataOutput       0x000381e1      0xe  Code  Gb  rfhal_pti.o [63]
PendSV_Handler          0x0000ec8b      0x2  Code  Wk  startup_efr32mg21.o [60]
PopMsg                  0x00026669     0x22  Code  Lc  ikk-rtt.o [5]
PopMsg                  0x00027cf5     0x16  Code  Lc  ikk-uart.o [3]
PushMsg                 0x0002668b     0x7c  Code  Lc  ikk-rtt.o [5]
PushMsg                 0x00027d0b     0x56  Code  Lc  ikk-uart.o [3]
RAC_RSM_IRQHandler      0x000361e9     0x30  Code  Gb  generic_phy.o [63]
RAC_SEQ_IRQHandler      0x000361e7      0x2  Code  Gb  generic_phy.o [63]
RAILCb_AssertFailed     0x0001d9a9      0x8  Code  Gb  lower-mac-rail-802.15.4.o [73]
RAILCb_CalcBitRate      0x0001ea9d      0x4  Code  Gb  micro.o [14]
RAILCb_CalcSymbolRate   0x0001ea99      0x4  Code  Gb  micro.o [14]
RAILCb_ConfigFrameTypeLength
                        0x0001eaa1      0x2  Code  Gb  micro.o [14]
RAILCb_RadioStateChanged
                        0x000363c5     0x10  Code  Wk  generic_phy.o [63]
RAILCb_SetupRxFifo      0x0002ea45     0x2c  Code  Wk  rail_data.o [63]
RAILCb_TimerExpired     0x0001d9b1     0x26  Code  Lc  lower-mac-rail-802.15.4.o [73]
RAILINT_0051eaafe853c487b55c5b0086cf29c2
                        0x00032411      0xc  Code  Lc  rail_rf_hal.o [63]
RAILINT_0051eaafe853c487b55c5b0086cf29c2
                        0x00036ba1      0xc  Code  Lc  rfhal_bufc.o [63]
RAILINT_005a11b7241ef4a58a21ac661a921e2c
                        0x00037b2d     0xdc  Code  Gb  rfhal_rand.o [63]
RAILINT_00e4106b12ff6c9f6797e6efcbdb45c6
                        0x000363d5     0x5a  Code  Gb  rfhal_pa.o [63]
RAILINT_016b95766c18d1e85e7bffbd2b411cf2
                        0x00035975     0x34  Code  Gb  generic_phy.o [63]
RAILINT_02168a3fd9dcd185582eaf9136c08086
                        0x00033559      0x8  Code  Gb  rail_rf_hal.o [63]
RAILINT_0255c7622498edf187473222b57405fc
                        0x00032a01     0x16  Code  Gb  rail_rf_hal.o [63]
RAILINT_030e1360184973224f582e75f917b432
                        0x20009e23      0x1  Data  Lc  rfhal_pa.o [63]
RAILINT_03e801fe2ea79e552224a91399e04938
                        0x0002db7d     0x12  Code  Lc  rail_rf.o [63]
RAILINT_04112667e25cb5c3924a7409e7e6418d
                        0x00034c47     0x22  Code  Lc  rfhal_timings.o [63]
RAILINT_05028a1c3b0e75fd5e01d3a2e90f2b93
                        0x0003e2f8    0x208  Data  Gb  ieee802154_efr32xg21_configurator_out.o [63]
RAILINT_062f95b6ee65a36e867688788bc13200
                        0x000380c1     0x54  Code  Gb  seq_globals.o [63]
RAILINT_0635531b0a833d0b8f35c79e90c43d07
                        0x00038119      0x4  Code  Lc  rfhal_pti.o [63]
RAILINT_0687b9d6730e7abf4f8c85a79ef44320
                        0x0002d9f1     0x34  Code  Gb  rail_rf.o [63]
RAILINT_06f185df66c290934a79a92c26de4fdf
                        0x2000a51b      0x1  Data  Lc  generic_phy.o [63]
RAILINT_076d70524317c641277ecb7e11876675
                        0x000323ef     0x1c  Code  Gb  rfhal_module.o [63]
RAILINT_08225d5483ace00bb8e631f7a642e511
                        0x00033b8d     0x18  Code  Gb  rail_assert.o [63]
RAILINT_085e7e8fe2cc8c9883a609792e1bbc4c
                        0x20009e27      0x1  Data  Lc  rfhal_pa.o [63]
RAILINT_08714d957944d32b82919f7f4f7b3815
                        0x0002f0e3     0x22  Code  Lc  rail_power_manager.o [63]
RAILINT_08f8779f64fcd4f30224fecbea6f231b
                        0x0003e500     0xcc  Data  Gb  ieee802154_efr32xg21_configurator_out.o [63]
RAILINT_099508753833c10465e5c3fcb4fc19df
                        0x00036f95     0x16  Code  Gb  rfhal_bufc.o [63]
RAILINT_0afd32d537c480e7d2f7d4d0219dc46d
                        0x2000fc28      0x4  Data  Lc  rail_singleprotocol.o [63]
RAILINT_0b0a90e2b9277f6cfd2ed6ee3553fa1f
                        0x00035533     0x16  Code  Lc  generic_phy.o [63]
RAILINT_0be8c95a6da096e6fadcf0e105648768
                        0x20009e2c      0x8  Data  Gb  rfhal_pa.o [63]
RAILINT_0d0e1b93ffe338a1fb0ff4fbc968a1a2
                        0x20009d96      0x1  Data  Lc  rail_power_manager.o [63]
RAILINT_0d50f2a0ce1b124c63c22eb04747c36d
                        0x2000a480     0x80  Data  Lc  rfhal_bufc.o [63]
RAILINT_0dc8f2c0458af0363e302bf07683fe0e
                        0x00035495     0x1c  Code  Lc  generic_phy.o [63]
RAILINT_0e5fca5edf024a1ca8f7974221317585
                        0x0003672b     0xc2  Code  Gb  rfhal_pa.o [63]
RAILINT_0f316c63a1ece858e938b84c41a06af6
                        0x00035a09     0xea  Code  Gb  generic_phy.o [63]
RAILINT_10e54a55a36f01fdc7838ca5eb16613c
                        0x2000f914     0x20  Data  Lc  pa_conversions_efr32.o [63]
RAILINT_118070b9ec299ec030261deb7e76a1e0
                        0x00037307     0x1e  Code  Gb  rfhal_protimer.o [63]
RAILINT_12280ec6e8c0edeaffaee6e14dca5b23
                        0x0003e6e4     0x14  Data  Gb  ieee802154_efr32xg21_configurator_out.o [63]
RAILINT_124a2d3d5ab5a93cc9130227a23bc5c7
                        0x00032499     0x18  Code  Lc  rail_rf_hal.o [63]
RAILINT_126786c210a135620ed21dc160615e8e
                        0x00032b89     0x14  Code  Lc  rail_rf_hal.o [63]
RAILINT_1322b4bb3d45ed0262c79a6b92bcccf3
                        0x2000f90c      0x4  Data  Lc  rail_power_manager.o [63]
RAILINT_13cd90d6e325ced4ff6db38df8fd92e5
                        0x00034d53     0x2a  Code  Gb  rfhal_timings.o [63]
RAILINT_13fac90c41465d2eb56a6fabadad3fdd
                        0x00034118      0x8  Data  Lc  rail_ieee802154_rf_hal.o [63]
RAILINT_167439c14d3bd2d1a00856fc4d6ed782
                        0x0003e5cc     0xcc  Data  Gb  ieee802154_efr32xg21_configurator_out.o [63]
RAILINT_1675e6b33e9e3ce44b72d7dcde04c7ff
                        0x2000feec      0x4  Data  Gb  rfhal_synth.o [63]
RAILINT_16c7b927f9367538ef67045773829986
                        0x000333f9     0x14  Code  Gb  rail_rf_hal.o [63]
RAILINT_1734593995616a243df831db3f276d51
                        0x00033b25      0x8  Code  Gb  rail_rf_hal.o [63]
RAILINT_18ba11b0556f215d599c42ebaaa8102a
                        0x00034ed7     0x24  Code  Gb  rfhal_radio.o [63]
RAILINT_197a9c74f3e6ec1bd8c9e8a7afec7349
                        0x00033add     0x2a  Code  Gb  rail_rf_hal.o [63]
RAILINT_1986c0432d5956a47120707922ca758f
                        0x20009eaa      0x1  Data  Lc  rail_rf_hal.o [63]
RAILINT_1a2f9668b3804a015dad129d9ad48585
                        0x0002da25     0x30  Code  Lc  rail_rf.o [63]
RAILINT_1a66fa66726b6a7fd5e76ba483af747f
                        0x00032dbd     0x14  Code  Gb  rail_rf_hal.o [63]
RAILINT_1ac1d7fdbe2af33d212b7fc848b6bf75
                        0x00036627     0xba  Code  Gb  rfhal_pa.o [63]
RAILINT_1acd82286b520fc71b4970030b63270d
                        0x00033a81     0x30  Code  Gb  rail_rf_hal.o [63]
RAILINT_1b7ba5b502fc25959960efe4d6433fc3
                        0x0002f318      0x8  Data  Lc  rail_power_manager.o [63]
RAILINT_1b823080d34c3928acbae64731431711
                        0x00037c93     0xec  Code  Lc  rfhal_rtccsync.o [63]
RAILINT_1d74021e9d815ed25aa9e97ee1a9ef94
                        0x20009e38      0x4  Data  Gb  rfhal_pa.o [63]
RAILINT_1e59a3d8388a1638812b2a987908d02a
                        0x00037775     0x22  Code  Gb  rfhal_synth.o [63]
RAILINT_1e8a8ae0dd6d748a1915990715a9fb4f
                        0x00036d1d     0x6c  Code  Lc  rfhal_bufc.o [63]
RAILINT_1eb3f5dfb1265da1cbadb1d9b3a83797
                        0x00033975      0x4  Code  Gb  rail_rf_hal.o [63]
RAILINT_1ee962fe6c768e7c29affe3c3e741ff8
                        0x20009e34      0x4  Data  Lc  rfhal_pa.o [63]
RAILINT_1f1191c16e7d62c9a834e7d1bf0232de
                        0x000351f3     0x22  Code  Gb  rfhal_radio.o [63]
RAILINT_1f46ac2dc824b62064780e144fbe62eb
                        0x0003346b     0x16  Code  Lc  rail_rf_hal.o [63]
RAILINT_1f51246b987090ba9466ff68503b18a2
                        0x00032477      0x2  Code  Lc  rail_rf_hal.o [63]
RAILINT_1fd800f80859beeebc99167f526b0041
                        0x2000a478      0x4  Data  Lc  rfhal_bufc.o [63]
RAILINT_1fe5d387ea4f685c09d0a85148b59248
                        0x00034d85     0x36  Code  Gb  rfhal_timings.o [63]
RAILINT_20ce16f993c07347a83ef4a4aba75d8d
                        0x2000fea4     0x18  Data  Lc  rfhal_radio.o [63]
RAILINT_21309d9e3e74ba75e4ea018ef8a25e6d
                        0x2000fef4      0x4  Data  Gb  rfhal_synth.o [63]
RAILINT_2139066fd39def36a70a2d91bd71d03c
                        0x0003582b      0xc  Code  Gb  generic_phy.o [63]
RAILINT_21644d5d26b64e36964e8a36332ce3a1
                        0x00037485     0x10  Code  Gb  rfhal_protimer.o [63]
RAILINT_2182064b78b20d3e24207c267bd112c8
                        0x00033421      0x8  Code  Gb  rail_rf_hal.o [63]
RAILINT_22006aff0ec1f87f735766a464265767
                        0x0002dbb9     0x28  Code  Gb  rail_rf.o [63]
RAILINT_22461f8750f349bc7c051f09fb1d4e9f
                        0x00034fd9      0x4  Code  Gb  rfhal_radio.o [63]
RAILINT_227f849322fb29b693e98d0472778bae
                        0x00033179     0x14  Code  Gb  rail_rf_hal.o [63]
RAILINT_22891a238dbdf7584a451285899cc08b
                        0x000365c9     0x5e  Code  Lc  rfhal_pa.o [63]
RAILINT_22db13e1b05e4b97bffefc60b78c64e4
                        0x00033ab7     0x24  Code  Gb  rail_rf_hal.o [63]
RAILINT_23a0db404af7f43e12ccc93ca408b752
                        0x00036b90     0x10  Data  Lc  rfhal_pa.o [63]
RAILINT_243ae7e012b1196b578647488f609c74
                        0x00035215      0x2  Code  Gb  rfhal_radio.o [63]
RAILINT_24a103c954d7f12b144cf3b20b1a7891
                        0x2000a520      0x8  Data  Lc  generic_phy.o [63]
RAILINT_2580872afa2c9b14df5804045c0d1214
                        0x20009dfc      0x4  Data  Lc  rail_rf_hal.o [63]
RAILINT_25fa3683fd2767a226e2e558b83d7da8
                        0x000354eb     0x48  Code  Lc  generic_phy.o [63]
RAILINT_2693234fda83fb2e19921471bced377d
                        0x0003337b     0x1e  Code  Gb  rail_rf_hal.o [63]
RAILINT_275de3cc5106fc85b450318094593b46
                        0x00035569    0x142  Code  Lc  generic_phy.o [63]
RAILINT_27a438b53a2f1e65cfe143f9ea5f25ed
                        0x00036d89     0x28  Code  Gb  rfhal_bufc.o [63]
RAILINT_28150ed274db07ca47123bb93bd2b944
                        0x00036bc5      0xe  Code  Lc  rfhal_bufc.o [63]
RAILINT_2830fcc7e04f79d9085ad66449e395c9
                        0x0003532f     0x24  Code  Gb  rfhal_radio.o [63]
RAILINT_29b47f8bad3a1df91d7d5f0b319e43e2
                        0x2000a519      0x1  Data  Lc  generic_phy.o [63]
RAILINT_29e412c82ee1aab6dcf86d26ec92d333
                        0x00036287     0x12  Code  Gb  generic_phy.o [63]
RAILINT_2a6a4e30bea18c344652fbb5e9c4403b
                        0x00033fd7     0x1c  Code  Gb  rail_ieee802154_rf_hal.o [63]
RAILINT_2a7d94ebccd3c291f1c9484a55564430
                        0x00033b2d     0x20  Code  Gb  rail_rf_hal.o [63]
RAILINT_2da535199cf0cc8e423c4e155f22013a
                        0x00033ef9     0x2c  Code  Lc  rail_ieee802154_rf_hal.o [63]
RAILINT_2ec14e3993acf487c88bdbadcc9cb7ca
                        0x2000fe2c      0x1  Data  Lc  rail_rf_hal.o [63]
RAILINT_2f79bd31f8f620d8c03d105a81ab7904
                        0x20009e40      0x4  Data  Gb  rfhal_pa.o [63]
RAILINT_3053cab487ce3528dbf5c31117b69958
                        0x00032e69     0x38  Code  Gb  rail_rf_hal.o [63]
RAILINT_31a4863885e2084458bc80a1befc5cbc
                        0x0002e553      0x4  Code  Lc  rail_singleprotocol.o [63]
RAILINT_32e75eb70352dd952c62a724c2e4626a
                        0x0003e6d0     0x14  Data  Gb  ieee802154_efr32xg21_configurator_out.o [63]
RAILINT_332fa131134e0d609ae01cd18907d6c9
                        0x000358c1     0x44  Code  Gb  generic_phy.o [63]
RAILINT_34942dd52d7a432db445aff594cfedb3
                        0x00037347    0x132  Code  Gb  rfhal_protimer.o [63]
RAILINT_34a2db27b30c76af32daadfa37b78fec
                        0x20009e10      0x1  Data  Lc  rail_rf_hal.o [63]
RAILINT_350b33ecba70f86a009de704565c3340
                        0x00033129     0x50  Code  Gb  rail_rf_hal.o [63]
RAILINT_357e0bb776870cb170bf9e2b1c976133
                        0x00033a35     0x3e  Code  Lc  rail_rf_hal.o [63]
RAILINT_35adde5fa8760f3cfce2045afb19688a
                        0x00034c69      0xe  Code  Gb  rfhal_timings.o [63]
RAILINT_35dfe09a14c5ba67306b100af4d651c1
                        0x00032bf9     0x54  Code  Lc  rail_rf_hal.o [63]
RAILINT_3622d8ae6b725a68433ca2e439889857
                        0x00035549     0x20  Code  Lc  generic_phy.o [63]
RAILINT_36798074f0e521bcc7516a31c2495a7d
                        0x20009e21      0x1  Data  Gb  rfhal_pa.o [63]
RAILINT_369c31cd3afe591f9ff87277c3d0fb25
                        0x0003378f     0x46  Code  Gb  rail_rf_hal.o [63]
RAILINT_36e0efd4f31a3f7fea4cfdcf40724d06
                        0x0003547d     0x18  Code  Lc  generic_phy.o [63]
RAILINT_37022e6e10aef8f1f93c8284b73919af
                        0x00035309     0x26  Code  Gb  rfhal_radio.o [63]
RAILINT_37764dbbc873d288a46c7846ac216b32
                        0x000356f7    0x134  Code  Gb  generic_phy.o [63]
RAILINT_37d2b7cced59507dd0543542d912cc4c
                        0x00036465     0x56  Code  Gb  rfhal_pa.o [63]
RAILINT_37eb04fc69e829eeff29501784064ea7
                        0x00037659     0x20  Code  Gb  rfhal_protimer.o [63]
RAILINT_3914d2048758410ae62ae857cd646356
                        0x00037479      0xc  Code  Gb  rfhal_protimer.o [63]
RAILINT_393bde014bedf0dfb0f24bda17538a5c
                        0x0002f0a5     0x36  Code  Lc  rail_power_manager.o [63]
RAILINT_3a4d624e30ba92644a1febe1e1edd393
                        0x00038115      0x4  Code  Gb  rail_mfm_rf_hal.o [63]
RAILINT_3a64b2f755b9bc907d78b5fb67a3feac
                        0x0002db8f     0x2a  Code  Gb  rail_rf.o [63]
RAILINT_3a7037dfbff476a36aaaad58b51cc6f8
                        0x20009e20      0x1  Data  Gb  rfhal_pa.o [63]
RAILINT_3bd82ba80840506762953547ba351af5
                        0x00034d7d      0x8  Code  Gb  rfhal_timings.o [63]
RAILINT_3c14a9a8dbc4a6a51f9002bbae7adb65
                        0x00032f05     0x2c  Code  Lc  rail_rf_hal.o [63]
RAILINT_3cd9fd7e9f535a40ce7ccab032a00c93
                        0x00037547      0xa  Code  Gb  rfhal_protimer.o [63]
RAILINT_3d551d23c6cf0d18aa63ff62a66856e5
                        0x0002f19f     0x3a  Code  Lc  rail_power_manager.o [63]
RAILINT_3d571521ddcc7a8abd25c6a84d87ed02
                        0x0002d815      0x2  Code  Lc  rail_rf.o [63]
RAILINT_3da33212e0cbc9c26493cfc236c78008
                        0x20009e0c      0x4  Data  Lc  rail_rf_hal.o [63]
RAILINT_3e053606c1cce44ae7fa38fa9f1eabd0
                        0x0002eb4b     0x8a  Code  Gb  rail_autoack.o [63]
RAILINT_3ee2096e5b5e6b78f562a13900b75ded
                        0x20009df8      0x4  Data  Lc  rail_rf_hal.o [63]
RAILINT_3f6aaef62a953e865c43b3385c3b936a
                        0x00033821     0x18  Code  Gb  rail_rf_hal.o [63]
RAILINT_3f9a2a6da02e725d895a59ca52e0ab85
                        0x20009eac      0x2  Data  Lc  rail_rf_hal.o [63]
RAILINT_3fb769a41b535bb5443f56518d4c1416
                        0x000363c1      0x2  Code  Gb  generic_phy.o [63]
RAILINT_3fdf5720bcd477d37adf925a23d9b2a9
                        0x00037503     0x2a  Code  Lc  rfhal_protimer.o [63]
RAILINT_400bd789a518b64dc1357a801e840615
                        0x20009ddc      0x4  Data  Lc  rail_rf.o [63]
RAILINT_40f12d1b4c5576481afddf46522c6bdc
                        0x2000a51a      0x1  Data  Lc  generic_phy.o [63]
RAILINT_41d03f3b0fb4f35d8e58b25f9c1bd328
                        0x000327d9     0x1a  Code  Gb  rail_rf_hal.o [63]
RAILINT_422a7c5822e11825edd3724e47149144
                        0x00036bd3     0x3c  Code  Gb  rfhal_bufc.o [63]
RAILINT_42b6c6816f1452c9bf8231d65803ca57
                        0x00032ea1     0x16  Code  Gb  rail_rf_hal.o [63]
RAILINT_43269fb560aa7053b0f1a664d7551e80
                        0x2000f910      0x4  Data  Lc  rail_power_manager.o [63]
RAILINT_449c9a6f96273c748baaff85ea0fa7df
                        0x0003650f     0x56  Code  Lc  rfhal_pa.o [63]
RAILINT_46577189d818a5fa153e5fda98f5f929
                        0x0003244d     0x1a  Code  Lc  rail_rf_hal.o [63]
RAILINT_46577189d818a5fa153e5fda98f5f929
                        0x000354b1     0x1a  Code  Lc  generic_phy.o [63]
RAILINT_4692b8f9c575ee2cccf50ef237529751
                        0x000323eb      0x2  Code  Gb  rfhal_module.o [63]
RAILINT_4704971a7519f8da99071d68e8b9c9fe
                        0x0002e547      0x4  Code  Lc  rail_singleprotocol.o [63]
RAILINT_472f7f976be4b03793ef70f326c304ab
                        0x000368a7    0x20c  Code  Gb  rfhal_pa.o [63]
RAILINT_480b227e2dc9215b2c77f967141c4490
                        0x00032ba7     0x16  Code  Gb  rail_rf_hal.o [63]
RAILINT_486763d5f2115d40a752992df4ecd9a0
                        0x00034efb     0x38  Code  Gb  rfhal_radio.o [63]
RAILINT_4940f7f5f2d77d4b71b3f7c220e0bd27
                        0x2000fe40      0x4  Data  Lc  rail_rf_hal.o [63]
RAILINT_49b681ecbb51ef98d7c2998fc1f86363
                        0x0003340d     0x14  Code  Gb  rail_rf_hal.o [63]
RAILINT_49e5989d617a6f7cd897457344c42e49
                        0x0002f051      0x2  Code  Lc  rail_power_manager.o [63]
RAILINT_49f5ce552862e1fd28dd051160da0e79
                        0x0002db6d      0x4  Code  Gb  rail_rf.o [63]
RAILINT_4b1651bbfb847e62ee587a0588af15c8
                        0x20009e25      0x1  Data  Lc  rfhal_pa.o [63]
RAILINT_4b44939c38acd1c7159027cf31bf064e
                        0x20009e44     0x2c  Data  Lc  rfhal_pa.o [63]
RAILINT_4d6ff8cd173e1aac0ef2ec458b7af974
                        0x2000a472      0x2  Data  Lc  rfhal_bufc.o [63]
RAILINT_4dd2b19dcb0c517577b05d24f0245f2b
                        0x0002e54b      0x4  Code  Lc  rail_singleprotocol.o [63]
RAILINT_4e506da0d1cffaf6b965e8b640f3ca88
                        0x20009d98      0x8  Data  Gb  rail_power_manager.o [63]
RAILINT_4ea6c2be71bd87508aa10ee3301097e4
                        0x0002e620     0x28  Data  Lc  rail_singleprotocol.o [63]
RAILINT_4eda2bd90e9e07594d5d541ad3723361
                        0x0003764b      0xe  Code  Gb  rfhal_protimer.o [63]
RAILINT_51fbbb904cb38c065ab74e3de2e4f05a
                        0x20009e80      0x8  Data  Lc  ieee802154_efr32xg21_configurator_out.o [63]
RAILINT_53335e28d8d8abd06b4c1dd9749f0e06
                        0x00036d0b     0x12  Code  Gb  rfhal_bufc.o [63]
RAILINT_53a12cc9f2910ea3166692fea2c59869
                        0x0002f105      0x4  Code  Lc  rail_power_manager.o [63]
RAILINT_54e8b549569a4762d94ba55cc7550414
                        0x0002e54f      0x4  Code  Lc  rail_singleprotocol.o [63]
RAILINT_55384fd58cd5ed212453e1feb57ca888
                        0x0003307b     0xaa  Code  Gb  rail_rf_hal.o [63]
RAILINT_5655a9c6b93f27c249cda7ec7784761d
                        0x00033373      0x8  Code  Gb  rail_rf_hal.o [63]
RAILINT_56ab0355828e1cfd17d8d117e829061c
                        0x0003384b     0x74  Code  Gb  rail_rf_hal.o [63]
RAILINT_56f6c69ed9f11b30ffcdb51a1f34be72
                        0x20009dd8      0x4  Data  Lc  rail_rf.o [63]
RAILINT_58fa2a00a849b114d4160c57aa6fa10b
                        0x0002d78f     0x1e  Code  Gb  rail_rf.o [63]
RAILINT_5d1ace430ee65c2466acff4128e4cfc9
                        0x000338bf      0x6  Code  Gb  rail_rf_hal.o [63]
RAILINT_619882fc55ba7ac6623d410162743041
                        0x20009e14      0x4  Data  Lc  rail_rf_hal.o [63]
RAILINT_63c0defb36aa5188aa3d123e8c42f6e3
                        0x0003594d     0x28  Code  Lc  generic_phy.o [63]
RAILINT_64e3acc2e3618aa7cfeaf99edf3d9542
                        0x00035101     0xd0  Code  Gb  rfhal_radio.o [63]
RAILINT_66c0ffbae2bb7d59ab4e140630efe425
                        0x00037209     0xc2  Code  Gb  rfhal_protimer.o [63]
RAILINT_675332ee343992f283038d168d75dc83
                        0x000375c5     0x72  Code  Gb  rfhal_protimer.o [63]
RAILINT_678950232db3778fbfc5047232ceef68
                        0x000323e9      0x2  Code  Gb  rfhal_module.o [63]
RAILINT_6789d0988867a4d2116b888609f53c6a
                        0x2000a474      0x4  Data  Gb  rfhal_bufc.o [63]
RAILINT_67a86c7ae80762547f4da431a4594e2f
                        0x00033f25     0x24  Code  Lc  rail_ieee802154_rf_hal.o [63]
RAILINT_688eaf2aef427cf2328cebc2580f4276
                        0x00036ab3     0x30  Code  Lc  rfhal_pa.o [63]
RAILINT_691a3c9d02e492f0048ac5f689418367
                        0x00036ae3     0x24  Code  Lc  rfhal_pa.o [63]
RAILINT_6a490d9fc11da098dd749190cb570071
                        0x00032737     0x10  Code  Gb  rail_rf_hal.o [63]
RAILINT_6a62c61310cf8e260df6e8f931cf54ec
                        0x0003e6b4     0x1c  Data  Gb  ieee802154_efr32xg21_configurator_out.o [63]
RAILINT_6a93695f5f84478af61af83071477330
                        0x000334e1     0x38  Code  Gb  rail_rf_hal.o [63]
RAILINT_6aaba7b762fd02c23317a736bb93c17f
                        0x00037729     0x16  Code  Gb  rfhal_protimer.o [63]
RAILINT_6b21e91f618012eb968fbb1af9665738
                        0x20009d94      0x1  Data  Lc  rail_power_manager.o [63]
RAILINT_6b2571d76de9a457d1386cca66471979
                        0x00032c59     0x4c  Code  Lc  rail_rf_hal.o [63]
RAILINT_6df80f2e68d263ec892f27342b4510d0
                        0x00033cab     0x6c  Code  Gb  rfhal_antenna.o [63]
RAILINT_6e9e96be026b1d0d6c179807866e28bd
                        0x00034e2b     0x60  Code  Lc  rfhal_radio.o [63]
RAILINT_6f327e26b4b3bd27bad6a73709d6687d
                        0x000326bf     0x78  Code  Gb  rail_rf_hal.o [63]
RAILINT_6fc8d7c853725dc722fc9681038bea18
                        0x00034f51     0x40  Code  Gb  rfhal_radio.o [63]
RAILINT_6ff6bd334cf34d5d5595ed52afe248a4
                        0x2000a51d      0x1  Data  Lc  generic_phy.o [63]
RAILINT_70127416f3edd2206faca4b78f47ea8c
                        0x00032747     0x92  Code  Gb  rail_rf_hal.o [63]
RAILINT_719c17ff4f7b17d502f5e25516077a23
                        0x00033c79     0x32  Code  Gb  rfhal_antenna.o [63]
RAILINT_728ed93c39e644b0fa96fe8b85404dba
                        0x00034f33     0x1e  Code  Lc  rfhal_radio.o [63]
RAILINT_73fb74f4109c6c695b74650110edd4c5
                        0x0002f10d     0x92  Code  Lc  rail_power_manager.o [63]
RAILINT_75ec1433d55ea8be4455a0e59f496cf5
                        0x000337e3     0x22  Code  Lc  rail_rf_hal.o [63]
RAILINT_76f32b62368078a548536dc2be525741
                        0x00036299     0x6a  Code  Gb  generic_phy.o [63]
RAILINT_785dbd1c39c85395b777bb297fcb3abb
                        0x0003246d      0x6  Code  Lc  rail_rf_hal.o [63]
RAILINT_78e01d9c40eec5cc92f1624047634920
                        0x00033839     0x12  Code  Gb  rail_rf_hal.o [63]
RAILINT_79499376faa6539ce17b32b88ae3e74b
                        0x00032e5d      0x8  Code  Gb  rail_rf_hal.o [63]
RAILINT_79fe17d7cf0118e4a445b2980ece4e21
                        0x2000fef8      0x4  Data  Lc  rfhal_timings.o [63]
RAILINT_7a0304533fa411eb11be503ad2073f12
                        0x00038127     0xba  Code  Gb  rfhal_pti.o [63]
RAILINT_7a28e9f31979dc87d931b8879301bd55
                        0x000372e5     0x22  Code  Gb  rfhal_protimer.o [63]
RAILINT_7a6123f0b5aaf6a44f66b4e092be236d
                        0x000338c9     0x10  Code  Gb  rail_rf_hal.o [63]
RAILINT_7a91d88c99c99537f415706502030640
                        0x00035404      0x8  Data  Lc  rfhal_radio.o [63]
RAILINT_7a9dc303159a4b961e4bd941dcb5faa4
                        0x00036fab     0x1e  Code  Gb  rfhal_bufc.o [63]
RAILINT_7bfcb7a3ec8b7c49b2c7cf5a1bc4d7f8
                        0x20009e18      0x4  Data  Lc  rail_assert.o [63]
RAILINT_7c11dd521eabe02209d82149a0355b71
                        0x20009df4      0x2  Data  Lc  rail_rf_hal.o [63]
RAILINT_7c778a5ad3b86481141258b145405a64
                        0x20009d95      0x1  Data  Lc  rail_power_manager.o [63]
RAILINT_7dc5b5b2cb6f6c088d2215ae2c367d35
                        0x00037c6d     0x26  Code  Gb  rfhal_rtccsync.o [63]
RAILINT_7e21882f8b6cdbd140b7b81618391520
                        0x0002d85b      0x8  Code  Gb  rail_rf.o [63]
RAILINT_81348f51d1ab8246931b452c1ab8b921
                        0x00037797    0x25a  Code  Gb  rfhal_synth.o [63]
RAILINT_818e75c034585a365c40db566b271a77
                        0x00034ba1     0x5a  Code  Gb  rfhal_timings.o [63]
RAILINT_82c4f4760672b945d99c24e7800fba3c
                        0x000359af     0x5a  Code  Gb  generic_phy.o [63]
RAILINT_8389459a02cd3203a8c5a5ec288925d4
                        0x00032467      0x6  Code  Lc  rail_rf_hal.o [63]
RAILINT_8393419be923d2b0a68c891f3dc52bcd
                        0x00037c09     0x1c  Code  Gb  rfhal_rand.o [63]
RAILINT_83aebfd7b61bce20ff754bb3ef5b15d7
                        0x0003811d      0xa  Code  Lc  rfhal_pti.o [63]
RAILINT_840bf9a42e336509c127b50109a537b3
                        0x000358ab     0x16  Code  Gb  generic_phy.o [63]
RAILINT_840f2f6069891d49420752c0efa859db
                        0x000374d5     0x26  Code  Gb  rfhal_protimer.o [63]
RAILINT_84cfc9d49d704c49c80199df24061166
                        0x2000fe7c      0x4  Data  Lc  rfhal_protimer.o [63]
RAILINT_84e52772c4f687fe7b8f172ad1dc684c
                        0x00035b11     0x26  Code  Gb  generic_phy.o [63]
RAILINT_850826de954379fb5ac3dff371c66c61
                        0x20009da0      0x4  Data  Lc  rail_power_manager.o [63]
RAILINT_8520745d6ab0283bbc4c2626aabca3a7
                        0x00037a5d     0x7e  Code  Lc  rfhal_synth.o [63]
RAILINT_85bcd4f4f9b7e8f88e7618b1e1d9d4b3
                        0x00036b88      0x8  Data  Lc  rfhal_pa.o [63]
RAILINT_86df283508559a676cb8ebbb0ea99481
                        0x0003590d     0x40  Code  Gb  generic_phy.o [63]
RAILINT_86e235256f7ee3ca52539a6d23b83116
                        0x00037b21      0x4  Code  Gb  rfhal_synth.o [63]
RAILINT_8755948974b8cb972c0554df295ffb21
                        0x00033979     0x44  Code  Gb  rail_rf_hal.o [63]
RAILINT_88934e3140b93505296b62e86383a377
                        0x0002f067     0x3e  Code  Lc  rail_power_manager.o [63]
RAILINT_88b3c3c38c2a12c54d1d6f473052652b
                        0x0002e984      0x8  Data  Lc  rail_ieee802154.o [63]
RAILINT_898ef26154a398d5cd7226fd024995d2
                        0x0002f053     0x14  Code  Lc  rail_power_manager.o [63]
RAILINT_8a75f2823b25af4ef7bfb1ec4ae31253
                        0x20009da8     0x18  Data  Lc  rail_power_manager.o [63]
RAILINT_8c2dc59fe86d3b10cdf433bc5460b05c
                        0x00032435     0x18  Code  Lc  rail_rf_hal.o [63]
RAILINT_8c8c24cbb31c8dbcf3a34ae1a92e567f
                        0x0002e557      0x4  Code  Lc  rail_singleprotocol.o [63]
RAILINT_8cab0235baec46a7e35301d4f0eecdb9
                        0x00033a2d      0x4  Code  Gb  rail_rf_hal.o [63]
RAILINT_8cc1c041a4722becb424fb868e683621
                        0x00037637      0xe  Code  Gb  rfhal_protimer.o [63]
RAILINT_8ccd609bdb4ede6c9845c7e6a95591f8
                        0x20009e1c      0x4  Data  Lc  rail_assert.o [63]
RAILINT_8cdbd4ebc93e533e267c9b297c491e72
                        0x00037325     0x22  Code  Gb  rfhal_protimer.o [63]
RAILINT_8d5bd7a01cddd908d96a89375cf2222f
                        0x000367ed     0xba  Code  Lc  rfhal_pa.o [63]
RAILINT_8e9443c15e9d1f729da6f3c68c044af1
                        0x0002ea77     0x2e  Code  Gb  rail_calibration.o [63]
RAILINT_8f25128d901cc4e42ef6c3d2df843555
                        0x20009d97      0x1  Data  Lc  rail_power_manager.o [63]
RAILINT_8f767f1ec8bb54df938dd1b4d3a2a5e2
                        0x20009df2      0x2  Data  Lc  rail_rf_hal.o [63]
RAILINT_8fa33bc549473e1d9f479c523f9e4d61
                        0x2000fe80      0x4  Data  Lc  rfhal_protimer.o [63]
RAILINT_8fb1965bbd600584e9a10dc1a1f6cde3
                        0x000372cb     0x1a  Code  Gb  rfhal_protimer.o [63]
RAILINT_8fcbcdc11af8ae389894bd78a757f8f8
                        0x0003544d     0x14  Code  Lc  generic_phy.o [63]
RAILINT_9018c4336fe39ec135d04fd138706a9c
                        0x2000a470      0x2  Data  Lc  rfhal_bufc.o [63]
RAILINT_9023795e146b25ab563cd35b4c960efb
                        0x2000fef0      0x4  Data  Gb  rfhal_synth.o [63]
RAILINT_91124ca5cc54348096087133b79ebb07
                        0x2000fe44      0x4  Data  Lc  rail_rf_hal.o [63]
RAILINT_94151dbaac0d9411f815659964379124
                        0x20009efb      0x1  Data  Lc  rfhal_antenna.o [63]
RAILINT_947586d53cad8889a965688cd8fe1b85
                        0x0003509b     0x66  Code  Gb  rfhal_radio.o [63]
RAILINT_95bfacc12a5f6cf346cf90940e386791
                        0x000324b1     0x2a  Code  Lc  rail_rf_hal.o [63]
RAILINT_96b64abb2e6797202688ca8caa960bd9
                        0x00036e27     0x3e  Code  Lc  rfhal_bufc.o [63]
RAILINT_96ef3f90db6eb2f3df321217916561a1
                        0x00034e8b     0x42  Code  Gb  rfhal_radio.o [63]
RAILINT_96f12f615679a7e90d9e7c9884c5861e
                        0x2000a51c      0x1  Data  Lc  generic_phy.o [63]
RAILINT_97e02aaf8a56e883aa10d6816e72ec25
                        0x00032ebd     0x22  Code  Gb  rail_rf_hal.o [63]
RAILINT_99a45a1dd90d193ba9f6586193062151
                        0x00034141     0x5e  Code  Gb  rfhal_ircal.o [63]
RAILINT_99c4b25d4598640705af20892edf3976
                        0x2000fe8c     0x14  Data  Lc  rfhal_pti.o [63]
RAILINT_9ab058db66312372e07952fb88f3c7e3
                        0x20009e7c      0x4  Data  Lc  rfhal_radio.o [63]
RAILINT_9b4fb68f71aeb3964c179222098d77b4
                        0x00032f3d      0xa  Code  Gb  rail_rf_hal.o [63]
RAILINT_9e116c3e57b28da30c04a1e05ff655e8
                        0x00033d17      0x6  Code  Gb  rfhal_antenna.o [63]
RAILINT_9f31b10e1c350e06d2e679862ace2642
                        0x00033b07      0xa  Code  Gb  rail_rf_hal.o [63]
RAILINT_9fb63c71310d9d5b6639d55811ec289f
                        0x00033ff3      0xc  Code  Gb  rail_ieee802154_rf_hal.o [63]
RAILINT_a0c4e56238159d67fb9819085999c301
                        0x2000febc     0x30  Data  Lc  rfhal_radio.o [63]
RAILINT_a0eb20e41f7cdddb6903fcd02d0a86fe
                        0x00034fdd     0xbe  Code  Gb  rfhal_radio.o [63]
RAILINT_a0eb2b2e36ca3b93d6a72d2cbb4f3077
                        0x00037b24      0x8  Data  Lc  rfhal_synth.o [63]
RAILINT_a2115667bbf1201b67d8166d581539b4
                        0x0003e6f8   0x17dc  Data  Gb  generic_efr32xg21_seq.o [63]
RAILINT_a263ed9a598eedd8bc3312081186675c
                        0x20009e04      0x4  Data  Lc  rail_rf_hal.o [63]
RAILINT_a398690e51f28867d97c234ebcc820b4
                        0x000352ab     0x5e  Code  Gb  rfhal_radio.o [63]
RAILINT_a4c2460ee5f53601ffc941e0804263ca
                        0x0003fed4      0x4  Data  Gb  generic_efr32xg21_seq.o [63]
RAILINT_a8174e6b464ff5658e23952bdff79601
                        0x00033555      0x4  Code  Gb  rail_rf_hal.o [63]
RAILINT_abcf13993160e9315ef5e98b672e4ca7
                        0x000374fb      0x8  Code  Gb  rfhal_protimer.o [63]
RAILINT_abf6b1f9d7e3d7b4df6f271e094fb331
                        0x00032b83      0x6  Code  Gb  rail_rf_hal.o [63]
RAILINT_ac1a472942226271344891b61681b77e
                        0x0003e698     0x1c  Data  Gb  ieee802154_efr32xg21_configurator_out.o [63]
RAILINT_ac470598f2373b44e171df215062d6ca
                        0x0003e26c     0x1c  Data  Lc  ieee802154_efr32xg21_configurator_out.o [63]
RAILINT_ac6ee67b4bb32063e4255e1e687fd327
                        0x00033739     0x48  Code  Gb  rail_rf_hal.o [63]
RAILINT_ad4386450246c1af3a704aa78e9733e8
                        0x00032f81     0x3a  Code  Gb  rail_rf_hal.o [63]
RAILINT_adb3dbd7ad7262ede63a9a8776013018
                        0x0002d895     0x1e  Code  Lc  rail_rf.o [63]
RAILINT_addd7213d503837361d787dd0dedd094
                        0x00035837      0x8  Code  Gb  generic_phy.o [63]
RAILINT_af0c891c90289647cf1ba311a22b34fd
                        0x00036c0f     0x34  Code  Gb  rfhal_bufc.o [63]
RAILINT_af0cf2ab6baabfa8671d3bb2b09a6e94
                        0x2000fe30      0x4  Data  Gb  rail_rf_hal.o [63]
RAILINT_af6a19d7842accd1ba7a4a778278f6d0
                        0x2000fe84      0x4  Data  Lc  rfhal_protimer.o [63]
RAILINT_afb796a375552993e72d62ec377f7667
                        0x00034007     0x64  Code  Gb  rail_ieee802154_rf_hal.o [63]
RAILINT_afe5dc7e21871acd5fa1cc65bc4f91a8
                        0x000354cb     0x20  Code  Gb  generic_phy.o [63]
RAILINT_b0e94a453a21fc81551c6437a59d2e31
                        0x00032fe9     0x92  Code  Gb  rail_rf_hal.o [63]
RAILINT_b19bf9437b1cb3b1e4a27fcc05711b71
                        0x0002f1d9     0xb8  Code  Lc  rail_power_manager.o [63]
RAILINT_b1efc2b2cc1269e0f528c1c96c9ddf6f
                        0x2000fe88      0x4  Data  Lc  rfhal_protimer.o [63]
RAILINT_b23e23549823fa8b2c2af5a8dd303578
                        0x00033a09     0x24  Code  Gb  rail_rf_hal.o [63]
RAILINT_b2a087df4bc4a0d05f4a7a5eafe8271c
                        0x000364d9     0x36  Code  Lc  rfhal_pa.o [63]
RAILINT_b55e8458bb3fc827d8094ddfbbf4b99c
                        0x2000ff40      0x2  Data  Lc  generic_phy.o [63]
RAILINT_b5b7f27aa28b0706885914d6f409cb98
                        0x00033b11      0xa  Code  Gb  rail_rf_hal.o [63]
RAILINT_b623a1f710b5632713b50b2d91a66cec
                        0x0002eaa5     0x1e  Code  Gb  rail_calibration.o [63]
RAILINT_b65eca79911693266a8c4174d8b0dc32
                        0x00032edf     0x26  Code  Gb  rail_rf_hal.o [63]
RAILINT_b696240113932faa4ec399a86a024295
                        0x00036db1     0x76  Code  Gb  rfhal_bufc.o [63]
RAILINT_b711cb9f3b368293ba1f5c745a3b0d25
                        0x00032f47     0x3a  Code  Gb  rail_rf_hal.o [63]
RAILINT_b79763392fb66dbe2b718a958220ac5f
                        0x00033f59     0x32  Code  Gb  rail_ieee802154_rf_hal.o [63]
RAILINT_b8b4b4281775a1bfa51a7bf543c75b29
                        0x0003752d     0x14  Code  Gb  rfhal_protimer.o [63]
RAILINT_bbec63cbddd3b81fcac4ac97f0bec2c0
                        0x00033f4f      0x2  Code  Gb  rail_ieee802154_rf_hal.o [63]
RAILINT_bcca1a8272d69ec50de6f195fbb0a128
                        0x000341a1     0x3c  Code  Gb  rfhal_ircal.o [63]
RAILINT_bd6cac6091b8c42cb3e3cf145c70cdae
                        0x20009da4      0x4  Data  Lc  rail_power_manager.o [63]
RAILINT_be309630bd9b81b0a39d8e32e7741256
                        0x20009dc8      0x8  Data  Lc  rail_power_manager.o [63]
RAILINT_befec434396d7ba553dc40bd61e94a71
                        0x000331ad     0x20  Code  Lc  rail_rf_hal.o [63]
RAILINT_bf8caa990380a0d59dc8d8e808b57706
                        0x0002e861      0xa  Code  Lc  rail_ieee802154.o [63]
RAILINT_bf95c6dcbfc6b399b724a81f1647870a
                        0x2000fe74      0x8  Data  Gb  rfhal_protimer.o [63]
RAILINT_c0054faafd3e1fd676e9696b5dc00af2
                        0x00037679     0x3e  Code  Gb  rfhal_protimer.o [63]
RAILINT_c116d161c777ff75c57ce64dc72bb7d3
                        0x2000a518      0x1  Data  Lc  generic_phy.o [63]
RAILINT_c2ecdc657d82ea0931294471bc872725
                        0x0002f310      0x8  Data  Lc  rail_power_manager.o [63]
RAILINT_c375cef42c2ebb42f6c30cb30e802020
                        0x0003643f     0x26  Code  Gb  rfhal_pa.o [63]
RAILINT_c384a9a1ea232f37568b5de3e8836cdb
                        0x00035b37    0x10e  Code  Lc  generic_phy.o [63]
RAILINT_c3a24531b64279060f7d0a7303ed8a3e
                        0x2000fe38      0x1  Data  Lc  rail_rf_hal.o [63]
RAILINT_c3bbbc698ed237241dc8c32ea602c269
                        0x00036c43     0x1c  Code  Gb  rfhal_bufc.o [63]
RAILINT_c46c22c75036b6a7f929093c35891d80
                        0x00032eb7      0x6  Code  Gb  rail_rf_hal.o [63]
RAILINT_c4d5ac953c91ee0a4142851520cf06e8
                        0x000340a1     0x54  Code  Gb  rail_ieee802154_rf_hal.o [63]
RAILINT_c51d2ba7d28bbd0cd2a5beacf93d4ea1
                        0x000339d1     0x34  Code  Gb  rail_rf_hal.o [63]
RAILINT_c5eb38378ccf9cbabc93639ba63351a7
                        0x0002d935     0xbc  Code  Gb  rail_rf.o [63]
RAILINT_c762e14e592b6543481ab46d27cf689f
                        0x20009e70      0x8  Data  Gb  rfhal_radio.o [63]
RAILINT_c7a07940cad9811e2a8d40337bcb7e76
                        0x00032d05     0xb8  Code  Lc  rail_rf_hal.o [63]
RAILINT_c83c66cb6165f316ffd3c72cbb23eddf
                        0x0003318d     0x10  Code  Gb  rail_rf_hal.o [63]
RAILINT_c84748192629debaa4b74b4dce4fd496
                        0x000325fd     0xc2  Code  Gb  rail_rf_hal.o [63]
RAILINT_c9d20eb6b7ca8a5dcdb29a4a78a56247
                        0x00037741     0x18  Code  Gb  rfhal_tempcal.o [63]
RAILINT_c9e6cd8dd1379168bd11706803b1be58
                        0x0003642f     0x10  Code  Gb  rfhal_pa.o [63]
RAILINT_cb484dfacac0e47668330c58e3e96e1a
                        0x00034bfb     0x4c  Code  Gb  rfhal_timings.o [63]
RAILINT_cbe747a5c47a0b59d2443c98ed6304fb
                        0x20009e00      0x4  Data  Lc  rail_rf_hal.o [63]
RAILINT_cc49ea746d623d78d5c9b49f889c44aa
                        0x00036e65     0xf0  Code  Gb  rfhal_bufc.o [63]
RAILINT_cdf6c070eae51389f46e4042c6b6eeb2
                        0x20009e24      0x1  Data  Lc  rfhal_pa.o [63]
RAILINT_ce6571b32e06fe506f56d251b7c7cff0
                        0x00033561    0x172  Code  Gb  rail_rf_hal.o [63]
RAILINT_cead1afdca01ca1e61144da5b5e33386
                        0x00033f8b     0x1a  Code  Gb  rail_ieee802154_rf_hal.o [63]
RAILINT_cfaf1ed648a7a28dd455e2bbe71930ec
                        0x2000fea0      0x1  Data  Lc  rfhal_pti.o [63]
RAILINT_cfe3dddfbaf7e507dc87c986ff1a4cf8
                        0x2000a528      0x4  Data  Lc  generic_phy.o [63]
RAILINT_cffa8dfa170151ef5206b027202b9c13
                        0x2000fc20      0x1  Data  Lc  rail_singleprotocol.o [63]
RAILINT_d076d92b53f10e473cbd14a12dc8a815
                        0x20009e22      0x1  Data  Gb  rfhal_pa.o [63]
RAILINT_d082d6f70c0a7e806f286169e6aefc67
                        0x00032bc5     0x24  Code  Gb  rail_rf_hal.o [63]
RAILINT_d1210f6beacec073e75599f904dba0a0
                        0x00035461     0x1c  Code  Lc  generic_phy.o [63]
RAILINT_d19a3a481a3eb47605ad585f68820640
                        0x000323ed      0x2  Code  Gb  rfhal_module.o [63]
RAILINT_d1d9a033f408e571035c7e2d9f0b40b3
                        0x000331cd    0x168  Code  Gb  rail_rf_hal.o [63]
RAILINT_d286364b94e6d38ea9b20b0f2e72ba4a
                        0x20009dd4      0x4  Data  Lc  rail_rf.o [63]
RAILINT_d355e7add6437b0fcd46cac55a2ba0e1
                        0x00034c77     0xca  Code  Gb  rfhal_timings.o [63]
RAILINT_d4a64671ef4a8c1279844f37a5e83fab
                        0x00032473      0x4  Code  Lc  rail_rf_hal.o [63]
RAILINT_d4e743c2a7255db7d3899b2fdae867fa
                        0x000338d9     0x40  Code  Gb  rail_rf_hal.o [63]
RAILINT_d53f9fcce5716894661c9f350b379a84
                        0x0003241d     0x18  Code  Lc  rail_rf_hal.o [63]
RAILINT_d53f9fcce5716894661c9f350b379a84
                        0x00036bad     0x18  Code  Lc  rfhal_bufc.o [63]
RAILINT_d63054190bf32a37ef27c3300b6acbab
                        0x00036fc9    0x16a  Code  Gb  rfhal_bufc.o [63]
RAILINT_d6830864167cdfb3f67156611ade1b22
                        0x000324db    0x122  Code  Gb  rail_rf_hal.o [63]
RAILINT_d6a02e1dec5670b1ef685c218779b046
                        0x20009dc0      0x8  Data  Lc  rail_power_manager.o [63]
RAILINT_d6c91e060e63a52be5c40794117ba546
                        0x00033339     0x3a  Code  Gb  rail_rf_hal.o [63]
RAILINT_d6ef6dfbfd8e60a221fd1993a9ae3b1c
                        0x00033431     0x16  Code  Lc  rail_rf_hal.o [63]
RAILINT_d7c7c4977785b23d4ad40d0fa765db64
                        0x000356af     0x3e  Code  Lc  generic_phy.o [63]
RAILINT_d82e929083fa27fed51a07c94283cfb0
                        0x00033447     0x24  Code  Lc  rail_rf_hal.o [63]
RAILINT_d8335fab6e42141cc675b7729bf97ab8
                        0x00037759     0x14  Code  Gb  rfhal_tempcal.o [63]
RAILINT_d8d9edac8b5743e0f7168a50fba7903c
                        0x0002e7f9      0x6  Code  Lc  rail_ieee802154.o [63]
RAILINT_d8d9edac8b5743e0f7168a50fba7903c
                        0x0002d785      0x6  Code  Lc  rail_rf.o [63]
RAILINT_d8d9edac8b5743e0f7168a50fba7903c
                        0x0002ea71      0x6  Code  Lc  rail_calibration.o [63]
RAILINT_d8d9edac8b5743e0f7168a50fba7903c
                        0x0002e4bd      0x6  Code  Lc  rail_singleprotocol.o [63]
RAILINT_d8d9edac8b5743e0f7168a50fba7903c
                        0x0002ebf5      0x6  Code  Lc  rail_rx.o [63]
RAILINT_d8d9edac8b5743e0f7168a50fba7903c
                        0x0002e729      0x6  Code  Lc  rail_tx.o [63]
RAILINT_d8d9edac8b5743e0f7168a50fba7903c
                        0x0002e98d      0x6  Code  Lc  rail_data.o [63]
RAILINT_d8d9edac8b5743e0f7168a50fba7903c
                        0x0002ec2f      0x6  Code  Lc  rail_rssi.o [63]
RAILINT_d8d9edac8b5743e0f7168a50fba7903c
                        0x0002eb45      0x6  Code  Lc  rail_autoack.o [63]
RAILINT_d99804337a5a7181a053690ad7ec720f
                        0x00032cb9     0x44  Code  Lc  rail_rf_hal.o [63]
RAILINT_d9b8cbdc8036f72b4f564c576be9d5ca
                        0x20009dd0      0x4  Data  Lc  rail_rf.o [63]
RAILINT_db4132a36d3e96f0a1b8cc3339ed8870
                        0x00037d7f     0x28  Code  Lc  rfhal_rtccsync.o [63]
RAILINT_db5767e47ff8f67198733887ad02a595
                        0x000364bb     0x1e  Code  Gb  rfhal_pa.o [63]
RAILINT_db6c5ce14e4a1de41a05d0e576ca612b
                        0x00036f55     0x40  Code  Gb  rfhal_bufc.o [63]
RAILINT_dbec4eb2592216aac0b528298070ac1d
                        0x0003e288     0x38  Data  Lc  ieee802154_efr32xg21_configurator_out.o [63]
RAILINT_dc28b71b560afb89c8018eaef00f6371
                        0x00034f91     0x48  Code  Gb  rfhal_radio.o [63]
RAILINT_dd52e80a3d2a7cf12748ca69ae68812e
                        0x000333a1     0x4c  Code  Gb  rail_rf_hal.o [63]
RAILINT_dd61ee0cbca3021a9b145e4a93b6ca3e
                        0x00036c61     0xaa  Code  Gb  rfhal_bufc.o [63]
RAILINT_dd7ad359688eae44361a2f79cd63f386
                        0x000338c5      0x4  Code  Gb  rail_rf_hal.o [63]
RAILINT_dde662e03a90874d1be0a176a644253d
                        0x000336d9     0x32  Code  Gb  rail_rf_hal.o [63]
RAILINT_e093caa7705fa89ca150eac0bcaf776a
                        0x00034e19     0x12  Code  Gb  rfhal_radio.o [63]
RAILINT_e0e55555913469ce34f7dfcac18b213a
                        0x0003e2c0     0x38  Data  Lc  ieee802154_efr32xg21_configurator_out.o [63]
RAILINT_e120bb03ab6b10e642d23a99a18b813e
                        0x2000fe34      0x4  Data  Lc  rail_rf_hal.o [63]
RAILINT_e2374d5c5d08ef23a756ca49cdae4d5e
                        0x20009e26      0x1  Data  Gb  rfhal_pa.o [63]
RAILINT_e317e6eaccfc6b947e0ca272bfe8cd1c
                        0x00033921     0x14  Code  Gb  rail_rf_hal.o [63]
RAILINT_e3794c7f28fc11e20fdbd4b926448881
                        0x000327f3      0x4  Code  Gb  rail_rf_hal.o [63]
RAILINT_e39d21fd0d700604ea26f34233c35f01
                        0x00033939     0x36  Code  Gb  rail_rf_hal.o [63]
RAILINT_e50acdab0ce2314445018aeebe0154fb
                        0x2000fe3c      0x4  Data  Lc  rail_rf_hal.o [63]
RAILINT_e569dc92cd7d7370734c562aadf24d8a
                        0x20009e12      0x2  Data  Lc  rail_rf_hal.o [63]
RAILINT_e7205abca2fefc4c75103567718143e7
                        0x0002d817     0x24  Code  Gb  rail_rf.o [63]
RAILINT_e74303079cfb6caa68a360c0027312a0
                        0x00032dd1     0x82  Code  Gb  rail_rf_hal.o [63]
RAILINT_e7abd7dd65393c5e9d6cf05f9873074e
                        0x0002da55    0x118  Code  Gb  rail_rf.o [63]
RAILINT_e7f92ef2f7794daac01f5298d46c1f6c
                        0x00034121     0x20  Code  Gb  rfhal_ircal.o [63]
RAILINT_e9514fb1d82727b34147a61ff9ff8245
                        0x20009e3c      0x4  Data  Lc  rfhal_pa.o [63]
RAILINT_e9827810a978db89666018f556812726
                        0x000351d1     0x22  Code  Gb  rfhal_radio.o [63]
RAILINT_ea760dadf6db76664bf5754504cc4594
                        0x00032479     0x20  Code  Lc  rail_rf_hal.o [63]
RAILINT_eb489d7989db44e2d7e4c7ce7892a0d4
                        0x00036265     0x22  Code  Gb  generic_phy.o [63]
RAILINT_eb96fe9a394d047297823df602211390
                        0x20009df0      0x1  Data  Lc  rail_rf_hal.o [63]
RAILINT_ed3cfb37d725b2e5bc6d55e1981461ea
                        0x0002d863     0x22  Code  Gb  rail_rf.o [63]
RAILINT_ef327c851b8e1140ec617f446ad9c191
                        0x20009e08      0x4  Data  Lc  rail_rf_hal.o [63]
RAILINT_ef6e02920cebd40d0f48afd440d98839
                        0x000379f1     0x6c  Code  Gb  rfhal_synth.o [63]
RAILINT_efc003fb9229e50bd2c6039ecc81bf78
                        0x00034e05     0x12  Code  Gb  rail_ble_rf_hal.o [63]
RAILINT_f0021440e9ea8d234ff7ba601f9f8f3a
                        0x0003348d     0x4e  Code  Lc  rail_rf_hal.o [63]
RAILINT_f0cf8070f4a45392032ed3bb1295ad9e
                        0x00035845     0x66  Code  Gb  generic_phy.o [63]
RAILINT_f15be7e6fe49c5e3f38e54b20d2c3548
                        0x0003657d     0x40  Code  Lc  rfhal_pa.o [63]
RAILINT_f31c591719d093e4034b2e46a6617955
                        0x00033fa5     0x18  Code  Gb  rail_ieee802154_rf_hal.o [63]
RAILINT_f34997b634be1ada96718a9b4016b1e0
                        0x00037551     0x74  Code  Gb  rfhal_protimer.o [63]
RAILINT_f51b8f1a047fd958239127bee7cec672
                        0x00037495     0x40  Code  Gb  rfhal_protimer.o [63]
RAILINT_f57fa97e54c0ec0588a4b199657c9593
                        0x000361a7     0x3a  Code  Gb  generic_phy.o [63]
RAILINT_f5ca2ee7d9a7eb55db3893d2d6867c9e
                        0x0003406b     0x36  Code  Gb  rail_ieee802154_rf_hal.o [63]
RAILINT_f5d8627ae390966bb74ecd51f4f14113
                        0x00032801     0x8c  Code  Gb  rail_rf_hal.o [63]
RAILINT_f68099fb311203a34fdd886c2eaa45da
                        0x000341e5      0x4  Code  Gb  rfhal_ircal.o [63]
RAILINT_f784e84fb4cc3daa14146cb67af97c23
                        0x0002ec11     0x1e  Code  Gb  rail_rx.o [63]
RAILINT_f895e904884fae89dbab08b6f197507b
                        0x000328a1     0x42  Code  Gb  rail_rf_hal.o [63]
RAILINT_f8b1f9a17dbe7c0fbd4ad14465866f34
                        0x0002e875     0x62  Code  Lc  rail_ieee802154.o [63]
RAILINT_f8c4869e5d1716bf619071772fd9e134
                        0x00037133     0x58  Code  Gb  rfhal_bufc.o [63]
RAILINT_fa1f7b68df9aecd0b18d6bbf3411dc24
                        0x20009e28      0x1  Data  Lc  rfhal_pa.o [63]
RAILINT_fb870014f09f206e16937453e11c90de
                        0x0002f109      0x4  Code  Lc  rail_power_manager.o [63]
RAILINT_fc17e151adf291b8037cf60cc9c8bcef
                        0x2000a500     0x18  Data  Gb  generic_phy.o [63]
RAILINT_fd2f53bfed45dba04267e271196b2649
                        0x000328e5    0x11c  Code  Lc  rail_rf_hal.o [63]
RAILINT_fd6b7b1ec9e6f30d30b442f64b54e0c9
                        0x00032a17    0x16c  Code  Gb  rail_rf_hal.o [63]
RAILINT_fe5f7d110f33a45e9bc2de128e474f08
                        0x00035217     0x94  Code  Gb  rfhal_radio.o [63]
RAILINT_fe85768b73bb801342c4475f3b2c6e1c
                        0x00033f49      0x6  Code  Gb  rail_ieee802154_rf_hal.o [63]
RAILINT_fe98b0b54d5e69c4bb375e35ae2fc37b
                        0x20009e78      0x1  Data  Lc  rfhal_radio.o [63]
RAILINT_ff46878d3151101d24bd32cf5022d420
                        0x0002d7ad     0x68  Code  Gb  rail_rf.o [63]
RAIL_ActiveHandle       0x2000fc24      0x4  Data  Gb  rail_singleprotocol.o [63]
RAIL_CalibrateTemp      0x0002eacd     0x18  Code  Gb  rail_calibration.o [63]
RAIL_CancelTimer        0x0002e579      0xe  Code  Gb  rail_singleprotocol.o [63]
RAIL_ConfigAntenna      0x0002dc09      0x6  Code  Gb  rail_rf.o [63]
RAIL_ConfigEvents       0x0002dbed     0x1c  Code  Gb  rail_rf.o [63]
RAIL_ConfigRxOptions    0x0002ebfb     0x16  Code  Gb  rail_rx.o [63]
RAIL_ConfigTxPower      0x0002e7b5     0x24  Code  Gb  rail_tx.o [63]
RAIL_ConvertDbmToRaw    0x00033ba5     0xd4  Code  Wk  pa_conversions_efr32.o [63]
RAIL_ConvertLqi         0x0002e9d5      0x8  Code  Gb  rail_data.o [63]
RAIL_ConvertRawToDbm    0x00033e45     0xb4  Code  Wk  pa_conversions_efr32.o [63]
RAIL_CopyRxPacket       0x0001cef9     0x26  Code  Lc  lower-mac-rail-802.15.4.o [73]
RAIL_DefaultRxFifo      0x2000fc2c    0x200  Data  Lc  rail_data.o [63]
RAIL_GetBitRate         0x0002d88d      0x8  Code  Gb  rail_rf.o [63]
RAIL_GetPendingCal      0x0002eac3      0xa  Code  Gb  rail_calibration.o [63]
RAIL_GetRadioEntropy    0x0002e51b     0x2c  Code  Gb  rail_singleprotocol.o [63]
RAIL_GetRadioState      0x0002e503      0x4  Code  Gb  rail_singleprotocol.o [63]
RAIL_GetRssi            0x0002e5ef      0x6  Code  Gb  rail_singleprotocol.o [63]
RAIL_GetRssiAlt         0x0002e5f5     0x12  Code  Gb  rail_singleprotocol.o [63]
RAIL_GetRssiOffset      0x0002ec35     0x16  Code  Gb  rail_rssi.o [63]
RAIL_GetRxIncomingPacketInfo
                        0x0002e9cf      0x6  Code  Gb  rail_data.o [63]
RAIL_GetRxPacketDetailsAlt
                        0x0002e9dd      0x8  Code  Gb  rail_data.o [63]
RAIL_GetRxPacketInfo    0x0002e9c7      0x8  Code  Gb  rail_data.o [63]
RAIL_GetRxTimeSyncWordEnd
                        0x0002e9e5     0x18  Code  Gb  rail_data.o [63]
RAIL_GetSchedulerStatus
                        0x0002e4fb      0x4  Code  Gb  rail_singleprotocol.o [63]
RAIL_GetSymbolRate      0x0002d885      0x8  Code  Gb  rail_rf.o [63]
RAIL_GetTime            0x0002eb07      0x4  Code  Gb  rail_timer.o [63]
RAIL_GetTxPowerConfig   0x0002e7e1     0x10  Code  Gb  rail_tx.o [63]
RAIL_GetTxPowerCurve::powerCurves
                        0x2000f934      0x8  Data  Lc  pa_conversions_efr32.o [63]
RAIL_GetTxPowerDbm      0x0002e787     0x2e  Code  Gb  rail_tx.o [63]
RAIL_IEEE802154_CalibrateIr2p4Ghz
                        0x0002eae5     0x16  Code  Gb  rail_calibration.o [63]
RAIL_IEEE802154_Config2p4GHzRadio
                        0x0002e86b      0x4  Code  Gb  rail_ieee802154.o [63]
RAIL_IEEE802154_GetAddress
                        0x0002e95b      0x6  Code  Gb  rail_ieee802154.o [63]
RAIL_IEEE802154_Init    0x0002e801     0x60  Code  Gb  rail_ieee802154.o [63]
RAIL_IEEE802154_SetFramePending
                        0x0002e957      0x4  Code  Gb  rail_ieee802154.o [63]
RAIL_IEEE802154_SetLongAddress
                        0x0002e913     0x1e  Code  Gb  rail_ieee802154.o [63]
RAIL_IEEE802154_SetPanId
                        0x0002e8d7     0x1e  Code  Gb  rail_ieee802154.o [63]
RAIL_IEEE802154_SetPromiscuousMode
                        0x0002e931     0x1c  Code  Gb  rail_ieee802154.o [63]
RAIL_IEEE802154_SetShortAddress
                        0x0002e8f5     0x1e  Code  Gb  rail_ieee802154.o [63]
RAIL_Idle               0x0002e507      0x8  Code  Gb  rail_singleprotocol.o [63]
RAIL_Init               0x0002e4c3     0x30  Code  Gb  rail_singleprotocol.o [63]
RAIL_InitPowerManager   0x0002f299     0x44  Code  Gb  rail_power_manager.o [63]
RAIL_InitTxPowerCurvesAlt
                        0x0002f321     0x1c  Code  Wk  pa_conversions_efr32.o [63]
RAIL_IsInitialized      0x0002e4f3      0x8  Code  Gb  rail_singleprotocol.o [63]
RAIL_IsRxAutoAckPaused  0x0002ebe7      0xe  Code  Gb  rail_autoack.o [63]
RAIL_IsValidChannel     0x0002d905     0x2e  Code  Gb  rail_rf.o [63]
RAIL_PauseRxAutoAck     0x0002ebd5     0x12  Code  Gb  rail_autoack.o [63]
RAIL_PeekRxPacket       0x0002ea21     0x20  Code  Gb  rail_data.o [63]
RAIL_SetCcaThreshold    0x0002e72f     0x10  Code  Gb  rail_tx.o [63]
RAIL_SetPtiProtocol     0x0002d83b     0x20  Code  Gb  rail_rf.o [63]
RAIL_SetRxFifo          0x0002e9af     0x12  Code  Gb  rail_data.o [63]
RAIL_SetStateTiming     0x0002d8b3     0x52  Code  Gb  rail_rf.o [63]
RAIL_SetTaskPriority    0x0002e4ff      0x4  Code  Gb  rail_singleprotocol.o [63]
RAIL_SetTime            0x0002eb0b      0x4  Code  Gb  rail_timer.o [63]
RAIL_SetTimer           0x0002e55d     0x1c  Code  Gb  rail_singleprotocol.o [63]
RAIL_SetTxFifo          0x0002e993     0x14  Code  Gb  rail_data.o [63]
RAIL_SetTxPowerDbm      0x0002e73f     0x3e  Code  Gb  rail_tx.o [63]
RAIL_StartCcaCsmaTx     0x0002e5a9     0x12  Code  Gb  rail_singleprotocol.o [63]
RAIL_StartRx            0x0002e5d5     0x1a  Code  Gb  rail_singleprotocol.o [63]
RAIL_StartTx            0x0002e589     0x20  Code  Gb  rail_singleprotocol.o [63]
RAIL_TxPowerCurvesVbat  0x0003e148     0x20  Data  Wk  pa_curves_efr32.o [63]
RAIL_UnlockModule       0x0002d78b      0x4  Code  Gb  rail_rf.o [63]
RAIL_VerifyTxPowerCurves
                        0x0002e7dd      0x4  Code  Gb  rail_tx.o [63]
RAIL_YieldRadio         0x0002e50f      0xc  Code  Gb  rail_singleprotocol.o [63]
RAIL_piecewiseDataHpVbat
                        0x0003e168     0x44  Data  Lc  pa_curves_efr32.o [63]
RAIL_piecewiseDataLpVbat
                        0x0003e1f0     0x44  Data  Lc  pa_curves_efr32.o [63]
RAIL_piecewiseDataMpVbat
                        0x0003e1ac     0x44  Data  Lc  pa_curves_efr32.o [63]
RESETHEAP$$Base         0x20000000            --   Gb  - Linker created -
RESETHEAP$$Limit        0x20002900            --   Gb  - Linker created -
RESETINFO$$Base         0x20000000            --   Gb  - Linker created -
RESETINFO$$Limit        0x2000009c            --   Gb  - Linker created -
RMU_ResetCauseClear     0x0002f33d      0xa  Code  Gb  em_rmu.o [17]
RMU_ResetCauseGet       0x0002f347      0x6  Code  Gb  em_rmu.o [17]
RTCC_ChannelInit        0x0002f379     0x2e  Code  Gb  em_rtcc.o [17]
RTCC_Enable             0x0002f3a7     0x58  Code  Gb  em_rtcc.o [17]
RTCC_IRQHandler         0x000214d9     0x34  Code  Gb  sl_sleeptimer_hal_rtcc.o [16]
RTCC_Init               0x0002f3ff     0x48  Code  Gb  em_rtcc.o [17]
ReceiveDmaComplete      0x0002f9c1     0xba  Code  Lc  uartdrv.o [16]
Region$$Table$$Base     0x0004034c            --   Gb  - Linker created -
Region$$Table$$Limit    0x00040394            --   Gb  - Linker created -
RemoveMsg               0x00026707     0x52  Code  Lc  ikk-rtt.o [5]
RemoveMsg               0x00027d61     0x4a  Code  Lc  ikk-uart.o [3]
Reset_Handler           0x0003883d      0xe  Code  Wk  startup_efr32mg21.o [60]
SEGGER_RTT_ConfigDownBuffer
                        0x0003189d     0x44  Code  Gb  SEGGER_RTT.o [5]
SEGGER_RTT_ConfigUpBuffer
                        0x00031851     0x3c  Code  Gb  SEGGER_RTT.o [5]
SEGGER_RTT_HasData      0x0003183f     0x12  Code  Gb  SEGGER_RTT.o [5]
SEGGER_RTT_Init         0x000318f3      0x2  Code  Gb  SEGGER_RTT.o [5]
SEGGER_RTT_Read         0x00031781      0xa  Code  Gb  SEGGER_RTT.o [5]
SEGGER_RTT_ReadNoLock   0x0003170f     0x40  Code  Gb  SEGGER_RTT.o [5]
SEGGER_RTT_Write        0x00031805     0x14  Code  Gb  SEGGER_RTT.o [5]
SEGGER_RTT_WriteNoLock  0x0003179f     0x3e  Code  Gb  SEGGER_RTT.o [5]
SEMBRX_IRQHandler       0x00038795           Code  Wk  isr-stubs.o [14]
SEMBTX_IRQHandler       0x00038795           Code  Wk  isr-stubs.o [14]
SETAMPERHOST_IRQHandler
                        0x00038795           Code  Wk  isr-stubs.o [14]
SE_addDataInput         0x00029f6d     0x14  Code  Gb  em_se.o [17]
SE_addDataOutput        0x00029f81     0x14  Code  Gb  em_se.o [17]
SE_addParameter         0x00029f95     0x14  Code  Gb  em_se.o [17]
SE_eraseUserData        0x0002a02d     0x1a  Code  Gb  em_se.o [17]
SE_executeCommand       0x00029fa9     0x3a  Code  Gb  em_se.o [17]
SE_writeUserData        0x00029fe3     0x4a  Code  Gb  em_se.o [17]
SIMEE$$Base             0x00056000            --   Gb  - Linker created -
SIMEE$$Limit            0x00066000            --   Gb  - Linker created -
SMU_PRIVILEGED_IRQHandler
                        0x00038795           Code  Wk  isr-stubs.o [14]
SMU_SECURE_IRQHandler   0x00038795           Code  Wk  isr-stubs.o [14]
SVC_Handler             0x0000dbb7      0x2  Code  Wk  startup_efr32mg21.o [60]
SW0_IRQHandler          0x00038795           Code  Wk  isr-stubs.o [14]
SW1_IRQHandler          0x00038795           Code  Wk  isr-stubs.o [14]
SW2_IRQHandler          0x00038795           Code  Wk  isr-stubs.o [14]
SW3_IRQHandler          0x00038795           Code  Wk  isr-stubs.o [14]
SYNTH_IRQHandler        0x00036251      0xe  Code  Gb  generic_phy.o [63]
SYSCFG_IRQHandler       0x00038795           Code  Wk  isr-stubs.o [14]
SYSTEM_ChipRevisionGet  0x0002edb5     0x18  Code  Gb  em_system.o [17]
StartReceiveDma         0x0002f905     0x3e  Code  Lc  uartdrv.o [16]
StartTransfer           0x00034739    0x12c  Code  Lc  dmadrv.o [16]
StartTransmitDma        0x0002f943     0x7c  Code  Lc  uartdrv.o [16]
SysTick_Handler         0x0001154f      0x2  Code  Wk  startup_efr32mg21.o [60]
SystemCLKIN0Get         0x000297e5      0x4  Code  Gb  system_efr32mg21.o [17]
SystemCoreClock         0x20009984      0x4  Data  Gb  system_efr32mg21.o [17]
SystemFSRCOClockGet     0x000297e9      0x2  Code  Gb  system_efr32mg21.o [17]
SystemHCLKGet           0x000297ab     0x1a  Code  Gb  system_efr32mg21.o [17]
SystemHFRCODPLLClock    0x20009980      0x4  Data  Lc  system_efr32mg21.o [17]
SystemHFRCODPLLClockGet
                        0x00029783      0x6  Code  Gb  system_efr32mg21.o [17]
SystemHFRCOEM23ClockGet
                        0x000297ef     0x62  Code  Gb  system_efr32mg21.o [17]
SystemHFXOClock         0x20009978      0x4  Data  Lc  system_efr32mg21.o [17]
SystemHFXOClockGet      0x000297c9      0x6  Code  Gb  system_efr32mg21.o [17]
SystemHFXOClockSet      0x000297cf     0x16  Code  Gb  system_efr32mg21.o [17]
SystemInit              0x00029771     0x12  Code  Gb  system_efr32mg21.o [17]
SystemLFRCOClockGet     0x00029851      0x6  Code  Gb  system_efr32mg21.o [17]
SystemLFXOClock         0x2000997c      0x4  Data  Lc  system_efr32mg21.o [17]
SystemLFXOClockGet      0x0002985d      0x6  Code  Gb  system_efr32mg21.o [17]
SystemMaxCoreClockGet   0x000297c5      0x4  Code  Gb  system_efr32mg21.o [17]
SystemSYSCLKGet         0x00029789     0x22  Code  Gb  system_efr32mg21.o [17]
SystemULFRCOClockGet    0x00029857      0x6  Code  Gb  system_efr32mg21.o [17]
TEMPDRV_GetTemp         0x0002effd     0x1a  Code  Gb  tempdrv.o [16]
TEMPDRV_IRQHandler      0x0002eec9     0x4a  Code  Gb  tempdrv.o [16]
TEMPDRV_Init            0x0002efaf     0x32  Code  Gb  tempdrv.o [16]
TEMPDRV_InitState       0x2000ff88      0x1  Data  Lc  tempdrv.o [16]
TIMER0_IRQHandler       0x0000bc2d     0x16  Code  Gb  ustimer.o [16]
TIMER1_IRQHandler       0x00038039     0x1a  Code  Gb  ikk-timer.o [3]
TIMER2_IRQHandler       0x00038009     0x16  Code  Gb  ikk-timer.o [3]
TIMER3_IRQHandler       0x0003801f     0x14  Code  Gb  ikk-timer.o [3]
TIMER_CompareBufSet     0x00031a85     0x16  Code  Lc  ikk-pwm.o [3]
TIMER_Enable            0x00037f41      0xc  Code  Lc  ikk-timer.o [3]
TIMER_Init              0x000216b7     0x9e  Code  Gb  em_timer.o [17]
TIMER_InitCC            0x0002175f     0x92  Code  Gb  em_timer.o [17]
TIMER_MaxCount          0x0000bacf     0x30  Code  Lc  ustimer.o [16]
TIMER_MaxCount          0x00031a4d     0x38  Code  Lc  ikk-pwm.o [3]
TIMER_SyncWait          0x00021815      0xe  Code  Gb  em_timer.o [17]
TIMER_Valid             0x0002165d     0x20  Code  Lc  em_timer.o [17]
TOKEN_AGING_TEST_FLG_DEFAULTS
                        0x0003ff12      0x1  Data  Gb  token-def.o [1]
TOKEN_BATTERY_VOLTAGE_DEFAULTS
                        0x0003fefa      0x2  Data  Gb  token-def.o [1]
TOKEN_DelayConfiguration_SINGLETON_DEFAULTS
                        0x0003fef6      0x2  Data  Gb  token-def.o [1]
TOKEN_ExistenceSwitch_SINGLETON_DEFAULTS
                        0x0003ff09      0x1  Data  Gb  token-def.o [1]
TOKEN_FULL_DEVICE_TEST_FLG_DEFAULTS
                        0x0003ff11      0x1  Data  Gb  token-def.o [1]
TOKEN_GATEWAY_EUI64_VALUE_DEFAULTS
                        0x0003e040      0x8  Data  Gb  token-def.o [1]
TOKEN_IAS_CIE_ADDRESS_1_DEFAULTS
                        0x0003e024      0x8  Data  Gb  token-def.o [1]
TOKEN_INDICATOR_NOT_DISTURB_MODE_FLG_DEFAULTS
                        0x0003ff13      0x1  Data  Gb  token-def.o [1]
TOKEN_IS_KONKE_GATEWAY_DEFAULTS
                        0x0003ff14      0x1  Data  Gb  token-def.o [1]
TOKEN_IndicateMode_SINGLETON_DEFAULTS
                        0x0003ff0a      0x1  Data  Gb  token-def.o [1]
TOKEN_MCUHardVersion_SINGLETON_DEFAULTS
                        0x0003ff0d      0x1  Data  Gb  token-def.o [1]
TOKEN_MCUSoftVersion_SINGLETON_DEFAULTS
                        0x0003ff0c      0x1  Data  Gb  token-def.o [1]
TOKEN_MFG_CCA_THRESHOLD
                        0x0003fed8      0x2  Data  Gb  mfg-token.o [14]
TOKEN_MFG_CHUNK_N1      0x0003fee6      0x2  Data  Gb  mfg-token.o [14]
TOKEN_MFG_CMEI          0x0003fee2      0x2  Data  Gb  mfg-token.o [14]
TOKEN_MFG_CTUNE         0x0003feda      0x2  Data  Gb  mfg-token.o [14]
TOKEN_MFG_CUSTOM_INSTALL_CODE
                        0x0003fee8      0x2  Data  Gb  mfg-token.o [14]
TOKEN_MFG_EUI_64        0x0003fee0      0x2  Data  Gb  mfg-token.o [14]
TOKEN_MFG_INSTALLATION_CODE
                        0x0003fede      0x2  Data  Gb  mfg-token.o [14]
TOKEN_MFG_ISN           0x0003fee4      0x2  Data  Gb  mfg-token.o [14]
TOKEN_MFG_SECURITY_CONFIG
                        0x0003fedc      0x2  Data  Gb  mfg-token.o [14]
TOKEN_MULTI_NETWORK_STACK_ALTERNATE_KEY_DEFAULTS
                        0x0003de84     0x14  Data  Gb  token-def.o [1]
TOKEN_MULTI_NETWORK_STACK_KEYS_DEFAULTS
                        0x0003de60     0x14  Data  Gb  token-def.o [1]
TOKEN_MULTI_NETWORK_STACK_NETWORK_MANAGEMENT_DEFAULTS
                        0x0003deb4      0x8  Data  Gb  token-def.o [1]
TOKEN_MULTI_NETWORK_STACK_NODE_DATA_DEFAULTS
                        0x0003de74     0x10  Data  Gb  token-def.o [1]
TOKEN_MULTI_NETWORK_STACK_NONCE_COUNTER_DEFAULTS
                        0x0003dec8      0x4  Data  Gb  token-def.o [1]
TOKEN_MULTI_NETWORK_STACK_PARENT_ADDITIONAL_INFO_DEFAULTS
                        0x0003fef2      0x2  Data  Gb  token-def.o [1]
TOKEN_MULTI_NETWORK_STACK_PARENT_INFO_DEFAULTS
                        0x0003debc      0xc  Data  Gb  token-def.o [1]
TOKEN_MULTI_NETWORK_STACK_TRUST_CENTER_DEFAULTS
                        0x0003de98     0x1c  Data  Gb  token-def.o [1]
TOKEN_MULTI_PAN_STACK_ADDITIONAL_CHILD_DATA_DEFAULTS
                        0x0003ff05      0x1  Data  Gb  token-def.o [1]
TOKEN_MULTI_PAN_STACK_CHILD_TABLE_DEFAULTS
                        0x0003e018      0xc  Data  Gb  token-def.o [1]
TOKEN_NODE_ID_DEFAULTS  0x0003fef8      0x2  Data  Gb  token-def.o [1]
TOKEN_PLUGIN_IAS_ZONE_SERVER_ENROLLMENT_METHOD_DEFAULTS
                        0x0003ff0e      0x1  Data  Gb  token-def.o [1]
TOKEN_REJOIN_MODE_DEFAULTS
                        0x0003ff0f      0x1  Data  Gb  token-def.o [1]
TOKEN_REPORT_TABLE_DEFAULTS
                        0x0003e02c     0x14  Data  Gb  token-def.o [1]
TOKEN_SINGLE_BOARD_TEST_FLG_DEFAULTS
                        0x0003ff10      0x1  Data  Gb  token-def.o [1]
TOKEN_STACK_ADDITIONAL_CHILD_DATA_DEFAULTS
                        0x0003ff04      0x1  Data  Gb  token-def.o [1]
TOKEN_STACK_ALTERNATE_KEY_DEFAULTS
                        0x0003ddd8     0x14  Data  Gb  token-def.o [1]
TOKEN_STACK_ANALYSIS_REBOOT_DEFAULTS
                        0x0003feee      0x2  Data  Gb  token-def.o [1]
TOKEN_STACK_APS_FRAME_COUNTER_DEFAULTS
                        0x0003ddd4      0x4  Data  Gb  token-def.o [1]
TOKEN_STACK_BINDING_TABLE_DEFAULTS
                        0x0003decc     0x10  Data  Gb  token-def.o [1]
TOKEN_STACK_BOOT_COUNTER_DEFAULTS
                        0x0003ddec      0x4  Data  Gb  token-def.o [1]
TOKEN_STACK_CERTIFICATE_TABLE_DEFAULTS
                        0x0003df04     0x5c  Data  Gb  token-def.o [1]
TOKEN_STACK_CHILD_TABLE_DEFAULTS
                        0x0003dedc      0xc  Data  Gb  token-def.o [1]
TOKEN_STACK_GP_DATA_DEFAULTS
                        0x0003df98     0x14  Data  Gb  token-def.o [1]
TOKEN_STACK_GP_INCOMING_FC_DEFAULTS
                        0x0003dfe0      0x4  Data  Gb  token-def.o [1]
TOKEN_STACK_GP_INCOMING_FC_IN_SINK_DEFAULTS
                        0x0003e014      0x4  Data  Gb  token-def.o [1]
TOKEN_STACK_GP_PROXY_TABLE_DEFAULTS
                        0x0003dfac     0x34  Data  Gb  token-def.o [1]
TOKEN_STACK_GP_SINK_TABLE_DEFAULTS
                        0x0003dfe4     0x30  Data  Gb  token-def.o [1]
TOKEN_STACK_KEYS_DEFAULTS
                        0x0003ddf4     0x14  Data  Gb  token-def.o [1]
TOKEN_STACK_KEY_TABLE_DEFAULTS
                        0x0003dee8     0x1c  Data  Gb  token-def.o [1]
TOKEN_STACK_MIN_RECEIVED_RSSI_DEFAULTS
                        0x0003ff03      0x1  Data  Gb  token-def.o [1]
TOKEN_STACK_MULTI_PHY_NWK_INFO_DEFAULTS
                        0x0003de48     0x18  Data  Gb  token-def.o [1]
TOKEN_STACK_NETWORK_MANAGEMENT_DEFAULTS
                        0x0003de34      0x8  Data  Gb  token-def.o [1]
TOKEN_STACK_NODE_DATA_DEFAULTS
                        0x0003de08     0x10  Data  Gb  token-def.o [1]
TOKEN_STACK_NONCE_COUNTER_DEFAULTS
                        0x0003ddf0      0x4  Data  Gb  token-def.o [1]
TOKEN_STACK_NVDATA_VERSION_DEFAULTS
                        0x0003feec      0x2  Data  Gb  token-def.o [1]
TOKEN_STACK_PARENT_ADDITIONAL_INFO_DEFAULTS
                        0x0003fef0      0x2  Data  Gb  token-def.o [1]
TOKEN_STACK_PARENT_INFO_DEFAULTS
                        0x0003de3c      0xc  Data  Gb  token-def.o [1]
TOKEN_STACK_TRUST_CENTER_DEFAULTS
                        0x0003de18     0x1c  Data  Gb  token-def.o [1]
TOKEN_STACK_ZLL_DATA_DEFAULTS
                        0x0003df60     0x10  Data  Gb  token-def.o [1]
TOKEN_STACK_ZLL_SECURITY_DEFAULTS
                        0x0003df70     0x28  Data  Gb  token-def.o [1]
TOKEN_Sensitivity_SINGLETON_DEFAULTS
                        0x0003ff0b      0x1  Data  Gb  token-def.o [1]
TOKEN_SlightMoveSwitch_SINGLETON_DEFAULTS
                        0x0003ff08      0x1  Data  Gb  token-def.o [1]
TOKEN_ZONE_ID_1_DEFAULTS
                        0x0003ff07      0x1  Data  Gb  token-def.o [1]
TOKEN_ZONE_STATE_1_DEFAULTS
                        0x0003ff06      0x1  Data  Gb  token-def.o [1]
TOKEN_ZONE_TYPE_1_DEFAULTS
                        0x0003fef4      0x2  Data  Gb  token-def.o [1]
TransmitDmaComplete     0x0002fadd     0x70  Code  Lc  uartdrv.o [16]
TransmitDmaCompleteDelayed
                        0x0002faa1     0x24  Code  Lc  uartdrv.o [16]
UARTDRV_Abort           0x0002ff2b    0x102  Code  Gb  uartdrv.o [16]
UARTDRV_DeInit          0x0002fe65     0xc0  Code  Gb  uartdrv.o [16]
UARTDRV_FlowControlGetSelfStatus
                        0x0003012b      0x4  Code  Gb  uartdrv.o [16]
UARTDRV_FlowControlSet  0x000300e1     0x1c  Code  Gb  uartdrv.o [16]
UARTDRV_FlowControlSetPeerStatus
                        0x000300fd     0x2e  Code  Gb  uartdrv.o [16]
UARTDRV_ForceTransmit   0x0003012f     0x7a  Code  Gb  uartdrv.o [16]
UARTDRV_GetPeripheralStatus
                        0x00030037      0x6  Code  Gb  uartdrv.o [16]
UARTDRV_GetReceiveDepth
                        0x0003003d      0x4  Code  Gb  uartdrv.o [16]
UARTDRV_GetReceiveStatus
                        0x00030041     0x34  Code  Gb  uartdrv.o [16]
UARTDRV_GetTransmitDepth
                        0x0003007b      0x2  Code  Gb  uartdrv.o [16]
UARTDRV_GetTransmitStatus
                        0x00030083     0x32  Code  Gb  uartdrv.o [16]
UARTDRV_InitUart        0x0002fc1f    0x240  Code  Gb  uartdrv.o [16]
UARTDRV_PauseTransmit   0x000301a9     0x22  Code  Gb  uartdrv.o [16]
UARTDRV_Receive         0x000301d3     0x36  Code  Gb  uartdrv.o [16]
UARTDRV_ResumeTransmit  0x00030233     0x2e  Code  Gb  uartdrv.o [16]
UARTDRV_Transmit        0x0003026d     0x50  Code  Gb  uartdrv.o [16]
ULFRCO_IRQHandler       0x00038795           Code  Wk  isr-stubs.o [14]
USART0_RX_IRQHandler    0x00021fbd     0x2a  Code  Gb  com.o [41]
USART0_TX_IRQHandler    0x00038795           Code  Wk  isr-stubs.o [14]
USART1_RX_IRQHandler    0x00021fe7     0x2a  Code  Gb  com.o [41]
USART1_TX_IRQHandler    0x00038795           Code  Wk  isr-stubs.o [14]
USART2_RX_IRQHandler    0x00038795           Code  Wk  isr-stubs.o [14]
USART2_TX_IRQHandler    0x00038795           Code  Wk  isr-stubs.o [14]
USART_BaudrateAsyncSet  0x0003037d     0x58  Code  Gb  em_usart.o [17]
USART_BaudrateCalc      0x000303d5     0x5a  Code  Gb  em_usart.o [17]
USART_BaudrateGet       0x00030439     0x20  Code  Gb  em_usart.o [17]
USART_Enable            0x00030459     0x20  Code  Gb  em_usart.o [17]
USART_InitAsync         0x00030479     0xa8  Code  Gb  em_usart.o [17]
USART_Reset             0x00030535     0x60  Code  Gb  em_usart.o [17]
USART_Rx                0x000305b9      0x8  Code  Gb  em_usart.o [17]
USART_Tx                0x000305c7      0xa  Code  Gb  em_usart.o [17]
USTIMER_Delay           0x0000bba9     0x30  Code  Gb  ustimer.o [16]
USTIMER_DelayIntSafe    0x0000bbd9     0x30  Code  Gb  ustimer.o [16]
USTIMER_Init            0x0000baff     0xaa  Code  Gb  ustimer.o [16]
UartMsgProcessHandle    0x00010add    0x566  Code  Gb  ikk-user.o [2]
UartMsgProcessHandle::last_alarm
                        0x2000ffc8      0x1  Data  Lc  ikk-user.o [2]
UartMsgProcessHandle::last_light
                        0x2000ff1e      0x2  Data  Lc  ikk-user.o [2]
UartMsgProcessHandle::light
                        0x2000ff20      0x2  Data  Lc  ikk-user.o [2]
UartMsgProcessHandle::poweron_flag
                        0x2000ffc9      0x1  Data  Lc  ikk-user.o [2]
UartSendHandle          0x000110f5    0x10e  Code  Gb  ikk-user.o [2]
UsageFault_Handler      0x00038789           Code  Gb  faults-v7m.o [14]
UserModuleInit          0x0000ec8f    0x154  Code  Gb  ikk-user.o [2]
WDOG0_IRQHandler        0x00006a7d      0x4  Code  Gb  micro-common.o [14]
WDOG1_IRQHandler        0x00038795           Code  Wk  isr-stubs.o [14]
WDOGn_Enable            0x00012cc1     0x24  Code  Gb  em_wdog.o [17]
WDOGn_Feed              0x00012ce5     0x22  Code  Gb  em_wdog.o [17]
WDOGn_Init              0x00012d07     0x64  Code  Gb  em_wdog.o [17]
_DoInit                 0x000315f5     0x60  Code  Lc  SEGGER_RTT.o [5]
_GetAvailWriteSpace     0x000316ef     0x14  Code  Lc  SEGGER_RTT.o [5]
_Rand_idx               0x20009f08      0x4  Data  Lc  rand.o [57]
_Rand_rv                0x20009f0c     0x80  Data  Lc  rand.o [57]
_Randinit               0x20009f00      0x1  Data  Gb  rand.o [57]
_Randseed               0x20009f04      0x4  Data  Gb  rand.o [57]
_SEGGER_RTT             0x2000bcb8     0x78  Data  Gb  SEGGER_RTT.o [5]
_WriteBlocking          0x00031655     0x58  Code  Lc  SEGGER_RTT.o [5]
_WriteNoCheck           0x000316ad     0x42  Code  Lc  SEGGER_RTT.o [5]
__NVIC_ClearPendingIRQ  0x00021c0d     0x18  Code  Lc  com.o [41]
__NVIC_ClearPendingIRQ  0x000348bf     0x16  Code  Lc  gpiointerrupt.o [16]
__NVIC_ClearPendingIRQ  0x0002eeb1     0x16  Code  Lc  tempdrv.o [16]
__NVIC_ClearPendingIRQ  0x0000bab9     0x16  Code  Lc  ustimer.o [16]
__NVIC_ClearPendingIRQ  0x000371f1     0x18  Code  Lc  rfhal_protimer.o [63]
__NVIC_DisableIRQ       0x00021bed     0x20  Code  Lc  com.o [41]
__NVIC_DisableIRQ       0x0003542d     0x20  Code  Lc  generic_phy.o [63]
__NVIC_EnableIRQ        0x00021bd5     0x18  Code  Lc  com.o [41]
__NVIC_EnableIRQ        0x000348a9     0x16  Code  Lc  gpiointerrupt.o [16]
__NVIC_EnableIRQ        0x00035415     0x18  Code  Lc  generic_phy.o [63]
__NVIC_GetPriority      0x00022621     0x1a  Code  Lc  em_core.o [17]
__NVIC_SetPriority      0x0001ea49     0x1e  Code  Lc  micro.o [14]
__aeabi_d2uiz           0x00038655           Code  Gb  DblToI32.o [64]
__aeabi_ddiv            0x00038259           Code  Gb  DblDiv.o [64]
__aeabi_dmul            0x000384b1           Code  Gb  DblMul.o [64]
__aeabi_ldiv0           0x0002f45d           Code  Gb  I64DivZer.o [69]
__aeabi_llsl            0x0002e489           Code  Gb  I64Shl.o [69]
__aeabi_llsr            0x0002163d           Code  Gb  U64Shr.o [69]
__aeabi_memclr          0x000066c9           Code  Gb  ABImemclr.o [69]
__aeabi_memclr4         0x0000dbb1           Code  Gb  ABImemclr4.o [69]
__aeabi_memset          0x0000c025           Code  Gb  ABImemset.o [69]
__aeabi_memset4         0x00022aad           Code  Gb  ABImemset48.o [69]
__aeabi_memset8         0x00022aad           Code  Gb  ABImemset48.o [69]
__aeabi_ui2d            0x0003823d           Code  Gb  I32ToDbl.o [64]
__aeabi_uldivmod        0x0002154d           Code  Gb  I64DivMod.o [69]
__cmain                 0x000387bd           Code  Gb  cmain.o [69]
__exit                  0x00038831           Code  Gb  XXexit.o [69]
__iar_Memset            0x0000c025           Code  Gb  ABImemset.o [69]
__iar_Memset4_word      0x00022ab5           Code  Gb  ABImemset48.o [69]
__iar_Memset8_word      0x00022ab5           Code  Gb  ABImemset48.o [69]
__iar_Memset_word       0x0000c02d           Code  Gb  ABImemset.o [69]
__iar_d2uiz             0x00038661           Code  Gb  DblToI32.o [64]
__iar_data_init3        0x000387dd     0x28  Code  Gb  data_init.o [69]
__iar_dlib_perthread_access
                        0x00034b9d      0x2  Code  Gb  xtls.o [57]
__iar_init_vfp          0x00038799           Code  Gb  fpinit_M.o [64]
__iar_lz77_init_single3
                        0x00038897     0x78  Code  Gb  lz77_init_single.o [69]
__iar_program_start     0x0003884b           Code  Gb  cstartup_M.o [69]
__iar_ui2d              0x00038241           Code  Gb  I32ToDbl.o [64]
__iar_unaligned___aeabi_memcpy
                        0x0000ec15           Code  Gb  ABImemcpy_unaligned.o [69]
__iar_unaligned___aeabi_memcpy4
                        0x0000ec35           Code  Gb  ABImemcpy_unaligned.o [69]
__iar_unaligned___aeabi_memcpy8
                        0x0000ec35           Code  Gb  ABImemcpy_unaligned.o [69]
__iar_unaligned___aeabi_memmove
                        0x000066d1           Code  Gb  ABImemmove_unaligned.o [69]
__iar_unaligned___aeabi_memmove4
                        0x000066d1           Code  Gb  ABImemmove_unaligned.o [69]
__iar_unaligned___aeabi_memmove8
                        0x000066d1           Code  Gb  ABImemmove_unaligned.o [69]
__iar_unaligned_memcmp  0x0001c8d9           Code  Gb  memcmp_unaligned.o [69]
__iar_unaligned_strcmp  0x00014ca1           Code  Gb  strcmp_unaligned.o [69]
__iar_zero_init3        0x00038857     0x40  Code  Gb  zero_init3.o [69]
__low_level_init        0x000387d7      0x4  Code  Gb  low_level_init.o [57]
__vector_table          0x00004200    0x134  Data  Gb  startup_efr32mg21.o [60]
_acDownBuffer           0x2000cd30     0x40  Data  Lc  SEGGER_RTT.o [5]
_acUpBuffer             0x2000bd30   0x1000  Data  Lc  SEGGER_RTT.o [5]
_call_main              0x000387c9           Code  Gb  cmain.o [69]
_exit                   0x00038825           Code  Gb  cexit.o [69]
_main                   0x000387d3           Code  Gb  cmain.o [69]
ackReceivedPending      0x20009bdf      0x1  Data  Lc  lower-mac-rail-802.15.4.o [73]
ackTimeoutCallback      0x0001d935     0x3c  Code  Lc  lower-mac-rail-802.15.4.o [73]
activeRadioConfig       0x20009eb9      0x1  Data  Lc  hal-config.o [21]
activeRouterScanRestoreNodeType
                        0x2000f901      0x1  Data  Lc  zigbee-scan.o [73]
activeScanCompleteHandler
                        0x000057e9     0x28  Code  Lc  zigbee-scan.o [73]
active_scan_default_beacon_request_callback
                        0x00009c7b     0x1a  Code  Lc  scan.o [73]
active_scan_request_callback
                        0x000057cf     0x1a  Code  Lc  zigbee-scan.o [73]
addDelay                0x2000ff30      0x2  Data  Lc  network.o [73]
addToApplicationQueue   0x00016eb9     0x3e  Code  Lc  network.o [73]
addressCacheSize        0x2000ffd4      0x1  Data  Gb  security-address-cache.o [1]
addressCacheStartIndex  0x2000ffd5      0x1  Data  Lc  security-address-cache.o [1]
addressIndexIsActive    0x0002655d     0x2c  Code  Lc  aps-retry.o [73]
addressMatchingEnabled  0x20009ee7      0x1  Data  Lc  lower-mac-rail-802.15.4.o [73]
aesContext              0x2000f944     0x24  Data  Lc  aes-efm32.o [73]
aesHashNextBlock        0x00020a6d     0x36  Code  Lc  aes-mmo.o [73]
afDeviceEnabled         0x2000ff48      0x1  Data  Gb  util.o [46]
afNoSecurityForDefaultResponse
                        0x2000ff49      0x1  Data  Lc  util.o [46]
age                     0x2000ff34      0x1  Data  Lc  broadcast.o [73]
ageChildren             0x0001a60d     0xfc  Code  Lc  child-aging.o [73]
allowIdling             0x2000fea1      0x1  Data  Lc  event-control.o [73]
appProperties           0x00039a3c     0x40  Data  Gb  bootloader-interface.o [18]
appResponseData         0x2000a98c     0x54  Data  Gb  message.o [46]
appResponseLength       0x2000f98a      0x2  Data  Gb  message.o [46]
appZclBuffer            0x2000aa80     0x54  Data  Gb  zcl-cli.o [46]
appZclBufferLen         0x2000fefc      0x2  Data  Gb  zcl-cli.o [46]
applicationProcessIncomingData
                        0x000202dd    0x1b2  Code  Lc  application-support.o [73]
apsCommandBaseSizes     0x0002c564     0x14  Data  Lc  packet-validate.o [68]
apsCommandPacketIsValid
                        0x0002c4a5     0x44  Code  Lc  packet-validate.o [68]
apsPacketIsValid        0x0002c435     0x66  Code  Lc  packet-validate.o [68]
askServerToRunUpgrade   0x00023681     0x30  Code  Lc  ota-client.o [32]
asynchronousHeapLimit   0x2000f7c0      0x4  Data  Lc  buffer-management.o [73]
attributeData           0x2000a75c    0x218  Data  Gb  attribute-storage.o [46]
attributeManufacturerCodes
                        0x00038f2c      0x4  Data  Gb  attribute-storage.o [46]
attributeSizes          0x00038b0c     0x30  Data  Lc  attribute-size.o [46]
autoAckEnabled          0x20009ee8      0x1  Data  Lc  lower-mac-rail-802.15.4.o [73]
avgParentRssi           0x2000f7fa      0x2  Data  Gb  association.o [73]
bdbTcLinkKeyExchangeAttempts
                        0x2000ffe2      0x1  Data  Lc  aps-keys.o [73]
bdbTcLinkKeyExchangeAttemptsMax
                        0x20009eee      0x1  Data  Lc  aps-keys.o [73]
beaconIndex             0x2000fb52      0x1  Data  Lc  beacon-handling.o [73]
beaconIterator          0x2000f7fc     0x18  Data  Gb  association.o [73]
beaconList              0x2000fb5c      0x2  Data  Lc  beacon-handling.o [73]
beaconListCount         0x2000fb50      0x1  Data  Lc  beacon-handling.o [73]
beaconPriority          0x0000a8df     0x84  Code  Lc  beacon-handling.o [73]
beaconRequesterEui      0x2000fb64      0x8  Data  Gb  beacon-handling.o [73]
bindOkFlg               0x2000ffc3      0x1  Data  Gb  ikk-user.o [2]
blackListedIdByteArray  0x2000ffcc      0x1  Data  Gb  ember-configuration.o [1]
blacklistedIdsArray     0x2000ff22      0x2  Data  Gb  ember-configuration.o [1]
ble_LR_DSA_125kb_timing
                        0x0003e254      0xc  Data  Gb  rail_ble_rf_hal.o [63]
ble_LR_DSA_500kb_timing
                        0x0003e260      0xc  Data  Gb  rail_ble_rf_hal.o [63]
bootloadStateToExternalState
                        0x000394cc      0xc  Data  Lc  ota-client.o [32]
bootloaderValidationContext
                        0x2000b694    0x22c  Data  Gb  bootloader-interface-app.o [18]
bootloader_init         0x00030711     0x2a  Code  Gb  btl_interface.o [18]
broadcastMessageSent    0x0002643d    0x114  Code  Lc  aps-retry.o [73]
broadcast_pan_when_scanning
                        0x2000fbc1      0x1  Data  Lc  scan.o [73]
brokenRouteErrorCode    0x20009ef1      0x1  Data  Lc  network.o [73]
bufferTracker           0x2000f7ac      0x2  Data  Lc  buffer-management.o [73]
cacheBuffer             0x2000ff24      0x2  Data  Lc  token-cache.o [73]
cacheUpdateCallback     0x0001430f     0x12  Code  Lc  nvm3.o [62]
cachedImageId           0x2000ae70     0x10  Data  Lc  ota-storage-simple.o [36]
cachedImageSize         0x2000ae80      0x4  Data  Lc  ota-storage-simple.o [36]
cachingNetworkIndex     0x20009ee5      0x1  Data  Lc  token-cache.o [73]
calcMic                 0x2000bcb4      0x4  Data  Lc  ccm-star.o [9]
calculateMessageTagHash
                        0x00009a3f     0x2a  Code  Lc  af-main-soc.o [46]
calculateSleeptimerTicksToFlushTxBuffers
                        0x0002fa87     0x1a  Code  Lc  uartdrv.o [16]
calculateTimer          0x00023933     0x1e  Code  Lc  ota-client.o [32]
callCommandAction       0x0001f6df    0x1d8  Code  Lc  command-interpreter2.o [1]
callbackEnd             0x00005aaf      0x8  Code  Gb  system-timer.o [60]
cc_disabled             0x20009eba      0x1  Data  Lc  sl_sleeptimer_hal_rtcc.o [16]
cfgEraseCnt             0x2000f908      0x4  Data  Lc  nvm3.o [62]
cfsrBits                0x0003a634     0x68  Data  Lc  diagnostic.o [14]
chTable                 0x2000b8c0     0x80  Data  Lc  dmadrv.o [16]
changeDynamicEvents     0x0001e1e7     0x30  Code  Lc  lower-mac-rail-802.15.4.o [73]
changeToChannel         0x2000fbf0      0x1  Data  Lc  zdo-channel.o [73]
channelCache            0x2000ff80      0x1  Data  Lc  form-and-join.o [19]
channelCache            0x2000f8e9      0x1  Data  Lc  zigbee-scan.o [73]
channelMaskCache        0x2000b674      0x4  Data  Lc  form-and-join.o [19]
charDowncase            0x0001f6b9      0xe  Code  Lc  command-interpreter2.o [1]
checkAddressConflict    0x0002bc35     0x26  Code  Lc  route-discovery.o [73]
checkAndRestoreChildTimeout
                        0x0001a3c7     0x5a  Code  Gb  child.o [73]
checkDelay              0x00030907     0x22  Code  Lc  ota-storage-eeprom-page-erase.o [37]
checkForMovedChild      0x00016641     0x22  Code  Lc  network.o [73]
checkMaybeSetParentToken
                        0x00009591     0x40  Code  Lc  association.o [73]
childIsExpectingMessageBitField
                        0x2000a460     0x10  Data  Lc  indirect-queue.o [73]
childJitMessage         0x0002b8e3     0x92  Code  Lc  jit.o [73]
childPolledBitField     0x2000a450     0x10  Data  Lc  indirect-queue.o [73]
child_table_pointer_stack
                        0x2000fb30     0x10  Data  Lc  mac-child.o [73]
cleanupAndStop          0x000254d3     0x30  Code  Lc  network-steering.o [28]
cleanup_scan_state      0x00009d5b     0x20  Code  Lc  scan.o [73]
clearCachedId           0x00028279     0x10  Code  Lc  ota-storage-simple.o [36]
clearNetworkSecurityFromMessage
                        0x000086e5     0x20  Code  Lc  association.o [73]
clearPartialWrite       0x0000c3a7     0x10  Code  Lc  eeprom.o [13]
cliBufferPrint          0x00031935     0x5c  Code  Gb  zcl-cli.o [46]
clock_wakeup_timer_handle
                        0x2000b634     0x18  Data  Lc  sl_power_manager.o [21]
clusterManufacturerCodes
                        0x00038f28      0x4  Data  Gb  attribute-storage.o [46]
clusterTickWrapper      0x00004487     0x1e  Code  Lc  af-event.o [46]
cluster_obj_list        0x200099f4     0x44  Data  Gb  ikk-user.o [2]
cmu_sys_clock_register  0x2000b658      0x4  Data  Gb  sl_power_manager_hal_s2.o [21]
comBufferQueueRxUsart0  0x2000971c     0x80  Data  Lc  com.o [41]
comBufferQueueRxUsart1  0x2000981c     0x80  Data  Lc  com.o [41]
comBufferQueueTxUsart0  0x2000979c     0x80  Data  Lc  com.o [41]
comBufferQueueTxUsart1  0x2000989c     0x80  Data  Lc  com.o [41]
comFifoQueueRxUsart0    0x2000aae8     0x88  Data  Lc  com.o [41]
comFifoQueueRxUsart1    0x2000abf8     0x88  Data  Lc  com.o [41]
comFifoQueueTxUsart0    0x2000ab70     0x88  Data  Lc  com.o [41]
comFifoQueueTxUsart1    0x2000ac80     0x88  Data  Lc  com.o [41]
comhandledata           0x2000ad08     0x38  Data  Lc  com.o [41]
commandManufacturerCodes
                        0x00038bf4      0x4  Data  Gb  attribute-storage.o [46]
commandParse            0x000230a1     0xe2  Code  Lc  ota-client.o [32]
commandReaderInit       0x0001f4c9     0x24  Code  Lc  command-interpreter2.o [1]
commandState            0x2000f63c     0x7c  Data  Lc  command-interpreter2.o [1]
compressPointer         0x0000727f     0x12  Code  Lc  buffer-management.o [73]
computeStringHash       0x0000c63f     0x1e  Code  Lc  reporting.o [39]
concurrent_rx_on_nwks   0x0000abb9     0x28  Code  Lc  upper-mac.o [73]
conditionallySendReport
                        0x0000c8d7     0x28  Code  Lc  reporting.o [39]
configureJoinStateForJoining
                        0x0000834f     0x40  Code  Gb  association.o [73]
configureMultiPanEvents
                        0x0002dc3d     0xa6  Code  Lc  multi-pan-common.o [67]
configureNodeStateForJoining
                        0x00008245    0x10a  Code  Gb  association.o [73]
configureReceivedAttribute
                        0x0000cfc7     0xd8  Code  Lc  reporting.o [39]
continueImageDownload   0x00023505     0x6a  Code  Lc  ota-client.o [32]
continueImageVerification
                        0x000235ef     0x92  Code  Lc  ota-client.o [32]
continueScanRequest     0x000321cd     0x58  Code  Lc  zdo-channel.o [73]
convertHeaderToFlatPacket
                        0x0002ab55     0x50  Code  Lc  crypto.o [73]
convertMscStatusToNvm3Status
                        0x00038689     0x10  Code  Lc  nvm3_hal_flash.o [30]
convertRssiToLqi        0x0001dfc7     0x3c  Code  Lc  lower-mac-rail-802.15.4.o [73]
copyAllTokens           0x00017a45     0x6a  Code  Lc  token-cache.o [73]
copyFlatPacketToBuffer  0x0002aba5     0x82  Code  Lc  crypto.o [73]
corebiasana_saved       0x2000b620      0x4  Data  Lc  sl_hfxo_manager_hal_s2.o [22]
corebiasstartup_saved   0x2000b624      0x4  Data  Lc  sl_hfxo_manager_hal_s2.o [22]
corebiasstartupi_saved  0x2000b628      0x4  Data  Lc  sl_hfxo_manager_hal_s2.o [22]
count                   0x2000ff53      0x1  Data  Lc  scan-dispatch.o [40]
countSuperRetriesForMacDataPoll
                        0x2000f990      0x1  Data  Lc  network.o [73]
counterHasNewBase       0x00014009     0x32  Code  Lc  nvm3.o [62]
counterIdxToAdr         0x00013f19     0x52  Code  Lc  nvm3.o [62]
counterIncFldGet        0x00013f7b     0x3e  Code  Lc  nvm3.o [62]
counterIncFldSet        0x00013fb9     0x50  Code  Lc  nvm3.o [62]
counterIsValidNewBase   0x0001403b     0x92  Code  Lc  nvm3.o [62]
counterUpdateBase       0x00014193     0x6a  Code  Lc  nvm3.o [62]
create_timer            0x0000ba23     0x58  Code  Lc  sl_sleeptimer.o [16]
cryptInternal           0x0002b0b3    0x348  Code  Lc  aps-encryption.o [73]
cryptoStatus            0x2000ff44      0x1  Data  Lc  crypto-state.o [46]
csmaParams              0x2000a3a0      0xc  Data  Lc  lower-mac-rail-802.15.4.o [73]
cstackMemory            0x20008b08    0x960  Data  Gb  cstartup-common.o [14]
ctunexiana_saved        0x2000b618      0x4  Data  Lc  sl_hfxo_manager_hal_s2.o [22]
ctunexoana_saved        0x2000b61c      0x4  Data  Lc  sl_hfxo_manager_hal_s2.o [22]
curCmd                  0x2000aa44     0x20  Data  Gb  util.o [46]
currentBootloadState    0x2000ff5a      0x1  Data  Lc  ota-client.o [32]
currentChannel          0x20009bdc      0x1  Data  Lc  lower-mac-rail-802.15.4.o [73]
currentChannelMask      0x2000b5c0      0x4  Data  Lc  network-steering.o [28]
currentDownloadFile     0x2000ae90     0x10  Data  Lc  ota-client.o [32]
currentEraseOffset      0x2000ae60      0x4  Data  Lc  ota-storage-eeprom-page-erase.o [37]
currentEventConfig      0x2000a3c0      0x8  Data  Lc  lower-mac-rail-802.15.4.o [73]
currentIncomingFrame    0x2000a3be      0x2  Data  Lc  lower-mac-rail-802.15.4.o [73]
currentJitFlag          0x2000f988      0x2  Data  Lc  jit.o [73]
currentOutgoingPacket   0x2000a3cc      0x4  Data  Lc  lower-mac-rail-802.15.4.o [73]
currentOutgoingPacketIsDataRequest
                        0x0001df81     0x3c  Code  Lc  lower-mac-rail-802.15.4.o [73]
currentRadioChannel     0x20009bdd      0x1  Data  Lc  lower-mac-rail-802.15.4.o [73]
currentUser             0x20009af4      0x4  Data  Lc  buffer-management.o [73]
current_child_table_pointer_stack_index
                        0x20009ef3      0x1  Data  Gb  mac-child.o [73]
current_em              0x2000ff76      0x1  Data  Lc  sl_power_manager.o [21]
current_force_tx_after_failed_cca_attempts
                        0x2000a3ae      0x1  Data  Lc  lower-mac-rail-802.15.4.o [73]
currentlyRunningEventControl
                        0x2000f7a0      0x4  Data  Lc  event-control.o [73]
customVerifyStatus      0x2000ff5f      0x1  Data  Lc  ota-client.o [32]
dataCache               0x2000ff0a      0x2  Data  Lc  form-and-join-node-adapter.o [19]
dataContents            0x2000b668      0x4  Data  Lc  form-and-join.o [19]
dataRequestCommandCallback
                        0x0001d9e1     0xb6  Code  Lc  lower-mac-rail-802.15.4.o [73]
defaultBase             0x20009ec8      0x1  Data  Lc  command-interpreter2.o [1]
defaultCache            0x2000aea4    0x640  Data  Lc  nvm3_default.o [30]
defaultDecision         0x2000ff42      0x1  Data  Lc  af-trust-center.o [46]
defaultLinkKey          0x00039960     0x10  Data  Lc  network-steering.o [28]
defaultSleepControl     0x2000ff6d      0x1  Data  Lc  idle-sleep.o [26]
default_force_tx_after_failed_cca_attempts
                        0x2000a3af      0x1  Data  Lc  lower-mac-rail-802.15.4.o [73]
deferredPanChange       0x00017db9     0x52  Code  Lc  management.o [73]
delayCount              0x2000fb6c      0x1  Data  Lc  retry.o [73]
delayedTxTimer          0x2000baf0     0x18  Data  Gb  uartdrv.o [16]
delta_list_insert_timer
                        0x0000b945     0x48  Code  Lc  sl_sleeptimer.o [16]
delta_list_remove_timer
                        0x0000b98d     0x36  Code  Lc  sl_sleeptimer.o [16]
desiredRadioConfig      0x20009eb8      0x1  Data  Lc  hal-config.o [21]
destinationRequiredCounters
                        0x0000d4b8      0x8  Data  Lc  ember-stack-common.o [73]
determinePageSizeLog    0x000308ed     0x1a  Code  Lc  ota-storage-eeprom-page-erase.o [37]
disableDefaultResponse  0x2000ff4f      0x1  Data  Gb  zcl-cli.o [46]
disableOtaDowngrades    0x2000ff61      0x1  Data  Lc  ota-client.o [32]
discoverBusy            0x2000ff5c      0x1  Data  Lc  ota-client.o [32]
dispatchZclMessage      0x00005fad     0xd2  Code  Lc  util.o [46]
distributedTestKey      0x00039970     0x10  Data  Lc  network-steering.o [28]
dmaXfer                 0x2000b940    0x100  Data  Lc  dmadrv.o [16]
downloadAndVerifyFinish
                        0x0002356f     0x80  Code  Lc  ota-client.o [32]
downloadAndVerifyFinish::zclStatusFromResult
                        0x000394dc      0x8  Data  Lc  ota-client.o [32]
dpllRefClkGet           0x00012a99     0x3a  Code  Lc  em_cmu.o [17]
early_wakeup_from_em    0x2000ff77      0x1  Data  Lc  sl_power_manager.o [21]
edCcaThreshold          0x20009ee9      0x1  Data  Lc  lower-mac-rail-802.15.4.o [73]
eepromState             0x2000ff8d      0x1  Data  Lc  eeprom.o [13]
em01GrpaClkGet          0x00012ad5     0x3a  Code  Lc  em_cmu.o [17]
em1RequestAdd           0x0002f6bb     0x22  Code  Lc  uartdrv.o [16]
em1RequestRemove        0x0002f6dd     0x1e  Code  Lc  uartdrv.o [16]
em23GrpaClkGet          0x00012b1b      0xa  Code  Lc  em_cmu.o [17]
em4GrpaClkGet           0x00012b2d      0x8  Code  Lc  em_cmu.o [17]
em4WakeupCause          0x2000bb34      0x4  Data  Lc  sleep-efm32.o [14]
emActiveAlwaysOnNetworkFound
                        0x00006933     0x14  Code  Gb  ember-multi-network-stub.o [66]
emActiveTaskCount       0x2000fea2      0x1  Data  Lc  event-control.o [73]
emAddApsFrame           0x0001ad0b    0x12e  Code  Gb  zigbee-packet-header.o [73]
emAddBlacklistedId      0x00018b0b     0xa6  Code  Gb  random-id.o [73]
emAddBroadcastTableEntry
                        0x0002a81f     0x8c  Code  Gb  broadcast.o [73]
emAddNeighborGuaranteed
                        0x0001bd43     0xca  Code  Gb  neighbor.o [73]
emAddPendingAckedMessage
                        0x00025cd5     0x46  Code  Gb  aps-retry.o [73]
emAddRejoinedChild      0x00019f59    0x206  Code  Gb  child.o [73]
emAddTransientLinkKey   0x0002debb     0xb0  Code  Gb  aps-keys-transient.o [73]
emAddTrustCenterRoute   0x0002bc5b     0x48  Code  Gb  route-discovery.o [73]
emAddTunnelledApsHeader
                        0x0001c853     0x48  Code  Gb  trust-center-util.o [73]
emAddUnicastTableEntry  0x0002a94f     0x36  Code  Gb  unicast-table.o [73]
emAddressTable          0x20009ae8      0x4  Data  Gb  ember-configuration.o [1]
emAddressTableSize      0x20009ed5      0x1  Data  Gb  ember-configuration.o [1]
emAesEncrypt            0x0002e437     0x2a  Code  Gb  aes-efm32.o [73]
emAfAbortPageRequest    0x0003080d      0x2  Code  Gb  ota-client-page-request.o [32]
emAfAppEventContext     0x200095ac     0x24  Data  Gb  af-event.o [46]
emAfAppEventContextLength
                        0x20009e88      0x2  Data  Gb  af-event.o [46]
emAfApplyDisableDefaultResponse
                        0x00006285     0x24  Code  Gb  util.o [46]
emAfApplyRetryOverride  0x0000625d     0x24  Code  Gb  util.o [46]
emAfApsFrameClusterIdSetup
                        0x00031927      0xe  Code  Gb  zcl-cli.o [46]
emAfApsFrameEndpointSetup
                        0x00031911     0x16  Code  Gb  zcl-cli.o [46]
emAfAssertNetworkIndexStackIsEmpty
                        0x0000461f      0x2  Code  Gb  multi-network.o [46]
emAfCalculatePercentage
                        0x000308d3     0x18  Code  Gb  ota-common.o [34]
emAfCallInits           0x00004c35     0x2a  Code  Gb  attribute-storage.o [46]
emAfCheckStayAwakeWhenNotJoined
                        0x00022bed     0x32  Code  Gb  idle-sleep.o [26]
emAfClearLinkKeyTable   0x000315f1      0x2  Code  Gb  af-security-common.o [46]
emAfCliNetworkIndex     0x2000ff45      0x1  Data  Gb  network-cli.o [46]
emAfClusterAttributeChangedCallback
                        0x00004b6b     0x40  Code  Gb  attribute-storage.o [46]
emAfClusterPreAttributeChangedCallback
                        0x00004bab     0x38  Code  Gb  attribute-storage.o [46]
emAfCommandApsFrame     0x2000a97c      0x4  Data  Gb  client-api.o [46]
emAfCopyMessageIntoRamBuffer
                        0x000099c7     0x30  Code  Gb  af-main-soc.o [46]
emAfCurrentCommand      0x2000aa64      0x4  Data  Gb  util.o [46]
emAfCurrentZigbeeProNetwork
                        0x2000a9e0      0x4  Data  Gb  multi-network.o [46]
emAfDisableDefaultResponse
                        0x2000ff4b      0x1  Data  Lc  util.o [46]
emAfEepromSavedPartialWrites
                        0x2000bb38     0x18  Data  Gb  eeprom.o [13]
emAfEndpoints           0x2000a74c     0x10  Data  Gb  attribute-storage.o [46]
emAfEvents              0x200095d0    0x148  Data  Gb  af-event.o [46]
emAfForceEndDeviceToStayAwake
                        0x2000ff6c      0x1  Data  Gb  idle-sleep.o [26]
emAfGetCryptoStatus     0x00004a29      0x6  Code  Gb  crypto-state.o [46]
emAfGetCurrentPageRequestStatus
                        0x00030801      0x4  Code  Gb  ota-client-page-request.o [32]
emAfGetEblStartOffset   0x00030c17      0x4  Code  Gb  ota-storage-eeprom.o [37]
emAfGetFinishedPageRequestOffset
                        0x00030809      0x4  Code  Gb  ota-client-page-request.o [32]
emAfGetManufacturerCodeForAttribute
                        0x00004d3b     0x10  Code  Gb  attribute-storage.o [46]
emAfGetManufacturerCodeForCluster
                        0x00004d4b     0x16  Code  Gb  attribute-storage.o [46]
emAfGetManufacturerCodeForCommand
                        0x000055d5     0x10  Code  Gb  attribute-storage.o [46]
emAfGetPageRequestMissedPacketDelayMs
                        0x00030805      0x4  Code  Gb  ota-client-page-request.o [32]
emAfHandlingPageRequestClient
                        0x000307f3      0x4  Code  Gb  ota-client-page-request.o [32]
emAfIncomingMessageHandler
                        0x0000e05f     0x92  Code  Gb  af-main-common.o [46]
emAfInit                0x00006749      0xe  Code  Gb  znet-bookkeeping.o [1]
emAfInitEvents          0x000044bd     0x14  Code  Gb  af-event.o [46]
emAfInitPageRequestClient
                        0x000307ef      0x4  Code  Gb  ota-client-page-request.o [32]
emAfInitializeMessageSentCallbackArray
                        0x0000dbb9     0x1a  Code  Gb  af-main-common.o [46]
emAfInitializeNetworkIndexStack
                        0x000045f5      0xa  Code  Gb  multi-network.o [46]
emAfIsEepromInitialized
                        0x0000c2db     0x10  Code  Gb  eeprom.o [13]
emAfLoadAttributeDefaults
                        0x00005195    0x136  Code  Gb  attribute-storage.o [46]
emAfLoadAttributesFromTokens
                        0x000052e9    0x120  Code  Gb  attribute-storage.o [46]
emAfMarkBuffers         0x0000676d     0x12  Code  Gb  znet-bookkeeping.o [1]
emAfMatchAttribute      0x00004d8d     0x26  Code  Gb  attribute-storage.o [46]
emAfMatchCluster        0x00004d61     0x2c  Code  Gb  attribute-storage.o [46]
emAfMessageSentHandler  0x0000e0f5     0xaa  Code  Gb  af-main-common.o [46]
emAfNetworkInit         0x0000e267     0x3c  Code  Gb  af-main-common.o [46]
emAfNetworkSecurityInit
                        0x0000e227     0x40  Code  Gb  af-main-common.o [46]
emAfNetworkSteeringPluginName
                        0x00039950     0x10  Data  Gb  network-steering.o [28]
emAfNextMissedBlockRequestOffset
                        0x000307fd      0x4  Code  Gb  ota-client-page-request.o [32]
emAfNoteReceivedBlockForPageRequestClient
                        0x000307f9      0x4  Code  Gb  ota-client-page-request.o [32]
emAfOkToIdleOrSleep     0x00022c1f     0x4a  Code  Gb  idle-sleep.o [26]
emAfOtaClientServiceDiscoveryCallback
                        0x00022f19     0xc2  Code  Gb  ota-client.o [32]
emAfOtaImageSignatureVerify
                        0x00030fa1      0x4  Code  Gb  ota-client-signature-verify.o [32]
emAfOtaMinMessageLengths
                        0x000394b4      0xc  Data  Gb  ota-common.o [34]
emAfOtaParseImageIdFromMessage
                        0x00030811     0x38  Code  Gb  ota-common.o [34]
emAfOtaStorageCheckDownloadMetaData
                        0x00030d25     0x24  Code  Gb  ota-storage-eeprom.o [37]
emAfOtaStorageDriverGetRealOffset
                        0x00030c3f     0x34  Code  Gb  ota-storage-eeprom.o [37]
emAfOtaStorageEepromInit
                        0x000309c3     0x72  Code  Gb  ota-storage-eeprom-page-erase.o [37]
emAfOtaStorageGetHeaderLengthAndImageSize
                        0x00030e59     0x24  Code  Gb  ota-storage-common.o [35]
emAfOtaStorageGetImageIdFromHeader
                        0x00030e05     0x3c  Code  Gb  ota-storage-common.o [35]
emAfOtaStorageGetSlot   0x00030dd1      0x6  Code  Gb  ota-storage-eeprom.o [37]
emAfOtaStorageGetTagOffsetAndSize
                        0x00030e7d     0x68  Code  Gb  ota-storage-common.o [35]
emAfOtaStorageReadAllTagInfo
                        0x00030ef3     0x92  Code  Gb  ota-storage-common.o [35]
emAfOtaStorageReadInt32uFromEeprom
                        0x00030bbd     0x28  Code  Gb  ota-storage-eeprom.o [37]
emAfOtaStorageWriteDownloadMetaData
                        0x00030d49     0x12  Code  Gb  ota-storage-eeprom.o [37]
emAfOtaStorageWriteInt32uToEeprom
                        0x00030be5     0x32  Code  Gb  ota-storage-eeprom.o [37]
emAfPageRequestTimerExpired
                        0x000307f7      0x2  Code  Gb  ota-client-page-request.o [32]
emAfPermitJoin          0x0000dff3     0x2e  Code  Gb  af-main-common.o [46]
emAfPluginEepromStateUpdate
                        0x0000c2eb     0x16  Code  Gb  eeprom.o [13]
emAfPluginNetworkSteeringCleanup
                        0x00025721      0x2  Code  Gb  network-steering.o [28]
emAfPluginNetworkSteeringClearStoredPanIds
                        0x00011585      0xc  Code  Gb  network-steering-soc.o [28]
emAfPluginNetworkSteeringCurrentChannel
                        0x2000ff67      0x1  Data  Gb  network-steering.o [28]
emAfPluginNetworkSteeringGetMaxPossiblePanIds
                        0x00011581      0x4  Code  Gb  network-steering-soc.o [28]
emAfPluginNetworkSteeringGetStoredPanIdPointer
                        0x00011591     0x42  Code  Gb  network-steering-soc.o [28]
emAfPluginNetworkSteeringJoinAttempts
                        0x2000ff69      0x1  Data  Gb  network-steering.o [28]
emAfPluginNetworkSteeringOptionsMask
                        0x2000ff6a      0x1  Data  Gb  network-steering.o [28]
emAfPluginNetworkSteeringPanIdIndex
                        0x2000ff66      0x1  Data  Gb  network-steering.o [28]
emAfPluginNetworkSteeringPrimaryChannelMask
                        0x20009968      0x4  Data  Gb  network-steering.o [28]
emAfPluginNetworkSteeringSecondaryChannelMask
                        0x2000996c      0x4  Data  Gb  network-steering.o [28]
emAfPluginNetworkSteeringState
                        0x2000ff62      0x1  Data  Gb  network-steering.o [28]
emAfPluginNetworkSteeringStateNames
                        0x20009944     0x24  Data  Gb  network-steering.o [28]
emAfPluginNetworkSteeringTotalBeacons
                        0x2000ff68      0x1  Data  Gb  network-steering.o [28]
emAfPluginReportVolatileData
                        0x20009f90    0x168  Data  Gb  reporting.o [39]
emAfPluginReportingAppendEntry
                        0x0000cd27     0x24  Code  Gb  reporting.o [39]
emAfPluginReportingDoEntriesMatch
                        0x0000ccdb     0x4c  Code  Gb  reporting.o [39]
emAfPluginReportingGetEntry
                        0x0000c65d     0x1a  Code  Gb  reporting.o [39]
emAfPluginReportingNumEntries
                        0x0000c6dd      0x8  Code  Gb  reporting.o [39]
emAfPluginReportingSetEntry
                        0x0000c677     0x12  Code  Gb  reporting.o [39]
emAfPreCommandReceived  0x00006781      0x4  Code  Gb  znet-bookkeeping.o [1]
emAfPreZDOMessageReceived
                        0x00006785      0x4  Code  Gb  znet-bookkeeping.o [1]
emAfPrintBuffer         0x0000e2f1     0x2e  Code  Lc  print-formatter.o [46]
emAfPrintInternalVarArg
                        0x0000d4dd     0x2a  Code  Lc  print.o [46]
emAfPrintPercentageSetStartAndEnd
                        0x000308b1     0x12  Code  Gb  ota-common.o [34]
emAfPrintPercentageUpdate
                        0x000308c3     0x10  Code  Gb  ota-common.o [34]
emAfProcessClusterSpecificCommand
                        0x0000d535     0x60  Code  Gb  process-cluster-message.o [46]
emAfProcessGlobalCommand
                        0x0000d5a5    0x418  Code  Gb  process-global-message.o [46]
emAfProcessZdo          0x0000e021     0x3e  Code  Gb  af-main-common.o [46]
emAfReadAttribute       0x000071bf     0x3e  Code  Gb  attribute-table.o [46]
emAfReadAttributesResponse
                        0x000067a3      0x4  Code  Gb  znet-bookkeeping.o [1]
emAfReadOrWriteAttribute
                        0x00004db3    0x19e  Code  Gb  attribute-storage.o [46]
emAfReportAttributes    0x000067a7      0x4  Code  Gb  znet-bookkeeping.o [1]
emAfResetAttributes     0x0000677f      0x2  Code  Gb  znet-bookkeeping.o [1]
emAfResponseLengthPtr   0x2000a978      0x4  Data  Gb  client-api.o [46]
emAfRetrieveAttributeAndCraftResponse
                        0x00006789      0x4  Code  Gb  znet-bookkeeping.o [1]
emAfSaveAttributeToToken
                        0x0000541f    0x180  Code  Gb  attribute-storage.o [46]
emAfSavedDisableDefaultResponseVale
                        0x2000ff4c      0x1  Data  Lc  util.o [46]
emAfSend                0x00009ab9     0xa0  Code  Gb  af-main-soc.o [46]
emAfSendMatchDescriptor
                        0x00031595     0x5c  Code  Gb  service-discovery-soc.o [46]
emAfServiceDiscoveryEventControls
                        0x2000a9e4     0x20  Data  Gb  service-discovery-common.o [46]
emAfServiceDiscoveryIncoming
                        0x00025033     0xfe  Code  Gb  service-discovery-common.o [46]
emAfServiceDiscoveryTimeoutHandler
                        0x00024ebf     0x30  Code  Gb  service-discovery-common.o [46]
emAfSetCryptoStatus     0x00004a2f      0x6  Code  Gb  crypto-state.o [46]
emAfStackStatusHandler  0x0000e1ad     0x7a  Code  Gb  af-main-common.o [46]
emAfStayAwakeWhenNotJoined
                        0x2000ff6b      0x1  Data  Gb  idle-sleep.o [26]
emAfStorageEepromUpdateDownloadOffset
                        0x00030aa1     0x64  Code  Gb  ota-storage-eeprom-page-erase.o [37]
emAfSyncingTime         0x2000ff46      0x1  Data  Gb  process-global-message.o [46]
emAfTaskId              0x2000fea3      0x1  Data  Gb  af-event.o [46]
emAfTestApsSecurityOverride
                        0x20009eb2      0x1  Data  Gb  util.o [46]
emAfTick                0x00006757     0x16  Code  Gb  znet-bookkeeping.o [1]
emAfWriteAttribute      0x00007051    0x15a  Code  Gb  attribute-table.o [46]
emAfZclBuffer           0x2000a974      0x4  Data  Gb  client-api.o [46]
emAfZclBufferLen        0x2000f8d6      0x2  Data  Gb  client-api.o [46]
emAfZigbeeKeyEstablishment
                        0x0000678d     0x16  Code  Gb  znet-bookkeeping.o [1]
emAfZigbeeProNetworks   0x0003e23a      0x2  Data  Gb  attribute-storage.o [46]
emAgeBlacklistedIds     0x00018c09     0x24  Code  Gb  random-id.o [73]
emAgeBroadcastTable     0x0002a76d     0x7e  Code  Gb  broadcast.o [73]
emAgeChildren           0x0001a59d     0x70  Code  Gb  child-aging.o [73]
emAgeChildrenAllNetworks
                        0x0001a709     0x20  Code  Gb  child-aging.o [73]
emAgeRouteTables        0x0002a26f     0xe8  Code  Gb  route-table.o [73]
emAgingEbrListEvent     0x2000fb7c      0x8  Data  Gb  enhanced-beacon-request-stub.o [74]
emAgingEbrListEventHandler
                        0x000150af      0x2  Code  Gb  enhanced-beacon-request-stub.o [74]
emAllNetworksInit       0x000154b9     0x82  Code  Gb  network.o [73]
emAllowRelay            0x20009ecb      0x1  Data  Gb  ember-configuration.o [1]
emAllowTcRejoinsUsingWellKnownKeyEventControls
                        0x2000f75c      0x8  Data  Gb  ember-configuration.o [1]
emAllowTcRejoinsUsingWellKnownKeyEventHandler
                        0x00009611     0x3a  Code  Gb  association.o [73]
emAmMulticastMember     0x0000e6b7     0x44  Code  Gb  address-table.o [73]
emAmNetworkManager      0x00017e75     0x30  Code  Gb  management.o [73]
emAnyChildHasFlagsSet   0x00019df7     0x3e  Code  Gb  child.o [73]
emAppZdoConfigurationFlags
                        0x2000ffd1      0x1  Data  Gb  ember-configuration.o [1]
emAppendSourceRoute     0x00020c0b     0x10  Code  Gb  source-route-stub.o [72]
emApplicationCheckIncomingQueue
                        0x000200b3     0x26  Code  Gb  application-support.o [73]
emApplicationProcessIncoming
                        0x000200d9    0x204  Code  Gb  application-support.o [73]
emApplicationProcessIncomingAck
                        0x00025d1b     0xe0  Code  Gb  aps-retry.o [73]
emApplicationSecurityMessageHandler
                        0x00018ecd    0x244  Code  Gb  aps-security.o [73]
emApsBaseFrameSize      0x0001ab6b     0x30  Code  Gb  zigbee-packet-header.o [73]
emApsCrypt              0x0002b497    0x150  Code  Gb  aps-encryption.o [73]
emApsExtendedHeaderSize
                        0x0001ab51     0x1a  Code  Gb  zigbee-packet-header.o [73]
emApsFrameSize          0x0001ab9b     0x32  Code  Gb  zigbee-packet-header.o [73]
emApsFrameToApsStruct   0x0001abed    0x11e  Code  Gb  zigbee-packet-header.o [73]
emApsHeaderSize         0x0001ab31     0x20  Code  Gb  zigbee-packet-header.o [73]
emApsPurge              0x00025c37     0x50  Code  Gb  aps-retry.o [73]
emApsUnicastMessageData
                        0x20009aec      0x4  Data  Gb  ember-configuration.o [1]
emAreKeysAuthorizedByDefault
                        0x0002dd75      0x4  Code  Gb  cbke-crypto-engine-stub.o [54]
emAssociationHandler    0x00008c61    0x26a  Code  Gb  association.o [73]
emAssociationInProgress
                        0x0000692f      0x4  Code  Gb  ember-multi-network-stub.o [66]
emAssociationRequestNotSent
                        0x00008f73      0x2  Code  Gb  association.o [73]
emAssumeSymmetricLink   0x0001be0d     0x34  Code  Gb  neighbor.o [73]
emAuxiliaryZdoRequestHandler
                        0x0002cb8d    0xa80  Code  Gb  zigbee-device.o [73]
emAvailableMemory       0x200000a0   0x2860  Data  Gb  ember-configuration.o [1]
emBeaconClassificationParams
                        0x20009de0      0x4  Data  Gb  beacon-handling.o [73]
emBeaconEventControls   0x2000f714      0x8  Data  Gb  ember-configuration.o [1]
emBeaconHandlingInit    0x0000a127     0x1a  Code  Gb  beacon-handling.o [73]
emBeaconJitterDuration  0x20009ef6      0x1  Data  Gb  beacon-handling.o [73]
emBeaconSuperframe      0x0001a487     0x26  Code  Gb  command.o [73]
emBindingFlags          0x20009ae0      0x4  Data  Gb  ember-configuration.o [1]
emBindingRemoteNode     0x20009adc      0x4  Data  Gb  ember-configuration.o [1]
emBindingTableLibraryStatus
                        0x0003e144      0x1  Data  Gb  binding-table.o [48]
emBroadcastGetMinAcksNeeded
                        0x0002a8f7      0x6  Code  Gb  broadcast.o [73]
emBroadcastMinAcksNeeded
                        0x20009ef7      0x1  Data  Gb  broadcast.o [73]
emBroadcastTableData    0x20009ac0      0x4  Data  Gb  ember-configuration.o [1]
emBroadcastTableIsFull  0x0002a7eb     0x34  Code  Gb  broadcast.o [73]
emBroadcastTableSize    0x20009ecf      0x1  Data  Gb  ember-configuration.o [1]
emBufferBytesRemaining  0x00007235     0x1a  Code  Gb  buffer-management.o [73]
emBufferQueueAddToHead  0x00014da5     0x14  Code  Gb  buffer-queue.o [73]
emBufferQueueIsEmpty    0x00014ce5      0xa  Code  Gb  buffer-queue.o [73]
emBufferQueueLength     0x00014cef     0x22  Code  Gb  buffer-queue.o [73]
emBufferQueueNext       0x00014db9     0x14  Code  Gb  buffer-queue.o [73]
emBufferQueuePreInsertBuffer
                        0x00014d57     0x4e  Code  Gb  buffer-queue.o [73]
emBuildAndSendCounterInfo
                        0x00006a05     0x78  Code  Gb  ember-multi-network-stub.o [66]
emCachedSleepyBroadcastHeader
                        0x2000f986      0x2  Data  Lc  jit.o [73]
emCallIncomingMessageHandler
                        0x000206e5     0xa6  Code  Gb  zigbee-dispatch.o [73]
emCallStackStatusHandler
                        0x00006a01      0x4  Code  Gb  ember-multi-network-stub.o [66]
emCallZigbeeKeyEstablishmentHandler
                        0x000069fd      0x4  Code  Gb  ember-multi-network-stub.o [66]
emCapabilityBytes       0x0001a45c      0x8  Data  Gb  child.o [73]
emCbke283k1DsaVerifyLibraryStatus
                        0x0003ff22      0x1  Data  Gb  cbke-crypto-engine-dsa-verify-283k1-stub.o [52]
emCbke283k1LibraryStatus
                        0x0003ff1d      0x1  Data  Gb  cbke-crypto-engine-283k1-stub.o [50]
emCbkeCoreLibraryStatus
                        0x0003ff1b      0x1  Data  Gb  cbke-crypto-engine-stub.o [54]
emCbkeDsaLibraryStatus  0x0003ff1f      0x1  Data  Gb  cbke-crypto-engine-dsa-sign-stub.o [51]
emCbkeDsaVerifyLibraryStatus
                        0x0003ff23      0x1  Data  Gb  cbke-crypto-engine-dsa-verify-stub.o [53]
emCbkeIsIdle            0x0002dd6f      0x4  Code  Gb  cbke-crypto-engine-stub.o [54]
emCbkeLibraryStatus     0x0003ff1c      0x1  Data  Gb  cbke-crypto-engine-163k1-stub.o [49]
emCbkeTick              0x0002dd73      0x2  Code  Gb  cbke-crypto-engine-stub.o [54]
emChangePanIdNow        0x00017cab     0x28  Code  Gb  management.o [73]
emChangeSourceRouteEntry
                        0x00020bd7      0x2  Code  Gb  source-route-stub.o [72]
emChannelChangeEvent    0x2000fbf8      0x8  Data  Gb  zdo-channel.o [73]
emChannelChangeEventHandler
                        0x00032385     0x44  Code  Gb  zdo-channel.o [73]
emCheckAvailableMemory  0x00005d3f      0x2  Code  Gb  ember-configuration.o [1]
emCheckEBRFilterList    0x000150ab      0x4  Code  Gb  enhanced-beacon-request-stub.o [74]
emCheckIncomingFrameCounter
                        0x00012397     0x28  Code  Gb  zigbee-neighbor.o [73]
emCheckOrSetTrustCenterEui64
                        0x0001e563     0x42  Code  Gb  aps-keys.o [73]
emChildExtendedTimeout  0x0000e61f     0x36  Code  Gb  address-table.o [73]
emChildInit             0x00019c0d    0x10a  Code  Gb  child.o [73]
emChildLqiData          0x20009aac      0x4  Data  Gb  ember-configuration.o [1]
emChildPower            0x20009aa8      0x4  Data  Gb  ember-configuration.o [1]
emChildProcessQuality   0x00019d4d     0x4a  Code  Gb  child.o [73]
emChildStatusData       0x20009aa0      0x4  Data  Gb  ember-configuration.o [1]
emChildTableData        0x20009a9c      0x4  Data  Gb  ember-configuration.o [1]
emChildTimersData       0x20009aa4      0x4  Data  Gb  ember-configuration.o [1]
emChooseRandomNeighbor  0x0001c157     0x9a  Code  Gb  neighbor.o [73]
emClearChildFrameCounter
                        0x00019f3f     0x1a  Code  Gb  child.o [73]
emClearNegotiatedPowerByEndDevice
                        0x0001a471      0x2  Code  Gb  zdo-r22-stub.o [74]
emClearSecurityData     0x00019aa7     0x1a  Code  Gb  aps-security.o [73]
emClearUnicastTable     0x0002a985     0x22  Code  Gb  unicast-table.o [73]
emCostDivision          0x0001dfbd      0xa  Code  Gb  lower-mac-rail-802.15.4.o [73]
emCostDivisions         0x20009d90      0x4  Data  Lc  lower-mac-rail-802.15.4.o [73]
emCurrentApsStruct      0x2000f7d0      0x4  Data  Gb  zigbee-dispatch.o [73]
emCurrentBindingIndex   0x2000ffd9      0x1  Data  Gb  zigbee-dispatch.o [73]
emCurrentChannel        0x2000f9a2      0x1  Data  Gb  network.o [73]
emCurrentLqi            0x2000f9a0      0x1  Data  Gb  network.o [73]
emCurrentMacTimestamp   0x2000f9a4      0x4  Data  Gb  network.o [73]
emCurrentMessageStatus  0x2000f7cc      0x1  Data  Gb  zigbee-dispatch.o [73]
emCurrentNetworkIndex   0x2000ffd8      0x1  Data  Gb  ember-multi-network-stub.o [66]
emCurrentNetworkInit    0x0001553b     0x38  Code  Gb  network.o [73]
emCurrentRssi           0x2000f9a1      0x1  Data  Gb  network.o [73]
emCurrentSender         0x2000f7ce      0x2  Data  Gb  zigbee-dispatch.o [73]
emCurrentSenderEui64    0x2000f7d4      0x4  Data  Gb  zigbee-dispatch.o [73]
emCurrentZdoRequestStatus
                        0x2000ffdc      0x1  Data  Gb  application-support.o [73]
emCustomMacFilterMatchList
                        0x2000fe48      0x4  Data  Gb  zigbee-mac-header.o [73]
emDeactivateOrDeleteActiveRoute
                        0x0002a57d     0x50  Code  Gb  route-table.o [73]
emDebugApiTrace         0x0001835b      0x6  Code  Gb  debug-extended-stub.o [56]
emDebugInit             0x0002d6ed      0x4  Code  Gb  debug-platform-stub.o [55]
emDebugReceiveTick      0x0000bee9      0x2  Code  Gb  debug-stub.o [55]
emDebugResetInfo        0x0000beed      0x2  Code  Gb  debug-stub.o [55]
emDecimalStringWrite    0x00022693     0x54  Code  Gb  ember-printf.o [15]
emDecrementPanConflictMeter
                        0x00017c91     0x1a  Code  Gb  management.o [73]
emDefaultSecurityLevel  0x20009eda      0x1  Data  Gb  ember-configuration.o [1]
emDefaultStackProfile   0x20009ed9      0x1  Data  Gb  ember-configuration.o [1]
emDeleteRouteTableEntry
                        0x0002a3d5     0x10  Code  Gb  route-table.o [73]
emDescriptorCapability  0x2000ff26      0x1  Data  Gb  zigbee-device.o [73]
emDestinationSpecificQueuePurge
                        0x00025c87     0x4c  Code  Gb  aps-retry.o [73]
emDetectIdConflict      0x00018991     0xdc  Code  Gb  random-id.o [73]
emDeviceJoiningSecurityHandler
                        0x0001c22d    0x14c  Code  Gb  trust-center-util.o [73]
emDiscoveryTable        0x20009ab8      0x4  Data  Gb  ember-configuration.o [1]
emDiscoveryTableSize    0x20009ecd      0x1  Data  Gb  ember-configuration.o [1]
emDoesSecurityPolicyAllowAppKeyRequests
                        0x0002dd79      0x4  Code  Gb  cbke-crypto-engine-stub.o [54]
emDsaSignAndSendMessage
                        0x0002f375      0x4  Code  Gb  cbke-crypto-engine-dsa-sign-stub.o [51]
emEnableApplicationCurrentNetwork
                        0x00006925      0x2  Code  Gb  ember-multi-network-stub.o [66]
emEndDeviceBindLibraryStatus
                        0x0003ff1e      0x1  Data  Gb  end-device-bind-stub.o [58]
emEndDeviceTimeoutData  0x20009ae4      0x4  Data  Gb  ember-configuration.o [1]
emEnergyScanResultCallback
                        0x2000f904      0x4  Data  Gb  zigbee-scan.o [73]
emEnhancedBeaconRequestLibraryStatus
                        0x0003ff19      0x1  Data  Gb  enhanced-beacon-request-stub.o [74]
emEraseChild            0x0001a323     0x24  Code  Gb  child.o [73]
emEraseChildDutyCycle   0x0002e485      0x2  Code  Gb  ember-duty-cycle-stub.o [73]
emEraseChildPowerTable  0x0001a3a7     0x20  Code  Gb  child.o [73]
emEraseChildTable       0x0001a347     0x60  Code  Gb  child.o [73]
emEraseChildTableOnJoin
                        0x20009ee3      0x1  Data  Gb  association.o [73]
emEventControlGetRemainingMS
                        0x00004821     0x28  Code  Gb  event-control.o [73]
emEventControlSetActive
                        0x000047f1     0x16  Code  Gb  event-control.o [73]
emEventControlSetDelayMS
                        0x00004807     0x1a  Code  Gb  event-control.o [73]
emExtendJoinTimeout     0x00007e8d     0x44  Code  Gb  association.o [73]
emFetchInt32u           0x0002100f     0x2a  Code  Gb  mac-header.o [73]
emFillRouteCommandData  0x0002bbc3     0x6a  Code  Gb  route-discovery.o [73]
emFindAddressByEui64    0x0000e53f     0x92  Code  Gb  address-table.o [73]
emFindAddressByNodeId   0x0000e5d1     0x4e  Code  Gb  address-table.o [73]
emFindBroadcastTableEntry
                        0x0002a71f      0x4  Code  Gb  broadcast.o [73]
emFindEbrPowerByEui64   0x000150b1      0x2  Code  Gb  enhanced-beacon-request-stub.o [74]
emFindEmptyDiscoveryTableEntry
                        0x0002a449      0xa  Code  Gb  route-table.o [73]
emFindMulticastBinding  0x0000e9d9     0x5a  Code  Gb  binding-table.o [48]
emFindNeighborByEui64   0x0001b93b     0x1e  Code  Gb  neighbor.o [73]
emFindNeighborIndexByEui64
                        0x0001b96b     0x32  Code  Gb  neighbor.o [73]
emFindOrAddNeighbor     0x0001bc4d     0xa0  Code  Gb  neighbor.o [73]
emFindOrCreateRouteTableEntry
                        0x0002a453     0xb6  Code  Gb  route-table.o [73]
emFindRouteTableEntry   0x0002a3cb      0xa  Code  Gb  route-table.o [73]
emFindTransientLinkKey  0x0002e081     0x44  Code  Gb  aps-keys-transient.o [73]
emFindUnicastBinding    0x0000ea33     0x90  Code  Gb  binding-table.o [48]
emFindWildcardTransientLinkKey
                        0x0002e32d     0x4a  Code  Gb  aps-keys-transient.o [73]
emFindZdoPayload        0x00017369     0x2a  Code  Gb  zigbee-device-util.o [73]
emFinishJoinFailure     0x000080e1     0x32  Code  Gb  association.o [73]
emForgetBindingShortId  0x0000e78d     0x5a  Code  Gb  binding-table.o [48]
emForgetShortId         0x0000e4d3     0x3a  Code  Gb  address-table.o [73]
emFragmentDelayMs       0x2000ffce      0x1  Data  Gb  ember-configuration.o [1]
emFrameCounterIndex     0x000122f5     0x22  Code  Gb  zigbee-neighbor.o [73]
emFrameCounterIndexFromEui64
                        0x000123df     0xcc  Code  Gb  zigbee-neighbor.o [73]
emFrameCountersTable    0x20009ad0      0x4  Data  Gb  ember-configuration.o [1]
emGenericQueueAdd       0x00014d21     0x36  Code  Gb  buffer-queue.o [73]
emGenericQueueHead      0x00014d11     0x10  Code  Gb  buffer-queue.o [73]
emGenericQueueRemove    0x00014e0d     0x66  Code  Gb  buffer-queue.o [73]
emGenericQueueRemoveHead
                        0x00014dcd     0x40  Code  Gb  buffer-queue.o [73]
emGetActiveAlwaysOnNetworkIndex
                        0x000068b5     0x1a  Code  Gb  ember-multi-network-stub.o [66]
emGetActiveCoordinatorOrRouterNetworkIndex
                        0x0000697d     0x1a  Code  Gb  ember-multi-network-stub.o [66]
emGetApplicationPayload
                        0x0001a7c9     0x66  Code  Gb  zigbee-packet-header.o [73]
emGetApsFrameCounter    0x0002b075      0x2  Code  Gb  aps-encryption.o [73]
emGetBeaconPayload      0x0000a52b     0x58  Code  Gb  beacon-handling.o [73]
emGetBufferLength       0x00007691     0x32  Code  Gb  buffer-management.o [73]
emGetBufferLink         0x00007761     0x26  Code  Gb  buffer-management.o [73]
emGetBufferPointer      0x00007661     0x30  Code  Gb  buffer-management.o [73]
emGetChildTokenForCurrentNetwork
                        0x00011d71     0x14  Code  Gb  multi-pan-stub.o [67]
emGetCurrentNetworkIndex
                        0x00006927      0x4  Code  Gb  ember-multi-network-stub.o [66]
emGetCurrentlyRunningEventControl
                        0x000049ff      0x6  Code  Gb  event-control.o [73]
emGetFirstActiveNetworkIndex
                        0x00006947     0x10  Code  Gb  ember-multi-network-stub.o [66]
emGetForkedEventControl
                        0x00011d99      0x2  Code  Gb  multi-pan-stub.o [67]
emGetKeyFromInstallCode
                        0x0002ddd5     0x62  Code  Gb  install-code-tokens.o [61]
emGetKeyTableEntry      0x0002e3eb      0x4  Code  Gb  aps-keys-full-stub.o [70]
emGetLinkKey            0x0001e5a5    0x154  Code  Gb  aps-keys.o [73]
emGetLocalCapabilities  0x000094df     0x12  Code  Gb  association.o [73]
emGetMinRejoinPeriodMillisec
                        0x00019bc7      0x6  Code  Gb  aps-security.o [73]
emGetNetworkIndexForForkedGlobal
                        0x00011d9f      0x4  Code  Gb  multi-pan-stub.o [67]
emGetNetworkIndexFromEventControl
                        0x00011d9b      0x4  Code  Gb  multi-pan-stub.o [67]
emGetNetworkKeys        0x00019a87     0x20  Code  Gb  aps-security.o [73]
emGetNetworkManagementState
                        0x00017b53     0x26  Code  Gb  management.o [73]
emGetNwkUpdateId        0x00017b79     0x10  Code  Gb  management.o [73]
emGetParentNwkInformation
                        0x00015129     0x1a  Code  Gb  child-handling.o [73]
emGetPhyInterfaceByNodeId
                        0x0000d4a1      0xe  Code  Gb  ember-stack-common.o [73]
emGetPreconfiguredKey   0x0001e4bb     0x1c  Code  Gb  aps-keys.o [73]
emGetRouteTableEntryIndex
                        0x0002a39d     0x2e  Code  Gb  route-table.o [73]
emGetSecurityFrameCounter
                        0x0002aa25      0x2  Code  Gb  crypto.o [73]
emGetTrustCenterEui64   0x0001e4e3     0x42  Code  Gb  aps-keys.o [73]
emGetUpdateTcLinkKeyState
                        0x0001e9f7      0x6  Code  Gb  aps-keys.o [73]
emGetUpgradeFileDestinationLength
                        0x00030e41     0x18  Code  Gb  ota-storage-common.o [35]
emGetZDOConfigurationMode
                        0x000178fb      0x6  Code  Gb  zigbee-device-util.o [73]
emGetZigbeeBinding      0x0000eac3     0x16  Code  Gb  binding-table.o [48]
emGetZigbeeEventNetworkIndex
                        0x0000691d      0x4  Code  Gb  ember-multi-network-stub.o [66]
emGetZigbeeSourceIeeeAddress
                        0x0001aacf     0x26  Code  Gb  zigbee-packet-header.o [73]
emGpDuplicateEvent      0x2000fb84      0x8  Data  Gb  gp-stub.o [59]
emGpDuplicateEventHandler
                        0x0001ea43      0x2  Code  Gb  gp-stub.o [59]
emGpIncomingMessageHandler
                        0x0001ea39      0x2  Code  Gb  gp-stub.o [59]
emGpInit                0x0001ea35      0x4  Code  Gb  gp-stub.o [59]
emGpMacFilterMatchList  0x2000fe4c      0x4  Data  Gb  zigbee-mac-header.o [73]
emGpTxEventControls     0x2000f74c      0x8  Data  Gb  ember-configuration.o [1]
emGpTxEventHandler      0x0001ea41      0x2  Code  Gb  gp-stub.o [59]
emGpWriteIncomingFCEvent
                        0x2000fb8c      0x8  Data  Gb  gp-stub.o [59]
emGpWriteIncomingFCEventHandler
                        0x0001ea45      0x2  Code  Gb  gp-stub.o [59]
emGpWriteIncomingFCInSinkEvent
                        0x2000fb94      0x8  Data  Gb  gp-stub.o [59]
emGpWriteIncomingFCInSinkEventHandler
                        0x0001ea47      0x2  Code  Gb  gp-stub.o [59]
emHandleBindUnbindRequests
                        0x00031e41     0xa6  Code  Gb  zdo-binding-table.o [48]
emHandleBindingTableRequest
                        0x00031ee9    0x10a  Code  Gb  zdo-binding-table.o [48]
emHandleChildIdConflict
                        0x00018a93     0x5a  Code  Gb  random-id.o [73]
emHandleEndDeviceBindRequest
                        0x0002d691      0x4  Code  Gb  end-device-bind-stub.o [58]
emHandleIeeeJoiningListRequest
                        0x0001a465      0x2  Code  Gb  zdo-r22-stub.o [74]
emHandleLeaveCommand    0x000180bb    0x138  Code  Gb  leave.o [73]
emHandleNwkEnhancedUpdateRequest
                        0x00032021    0x1a4  Code  Gb  zdo-channel.o [73]
emHandleRouteCommand    0x0002be39    0x2de  Code  Gb  route-discovery.o [73]
emHandleRouteError      0x0002c623     0x9e  Code  Gb  route-error.o [73]
emHandleSleepyRequest   0x0002051b    0x14a  Code  Gb  application-support.o [73]
emHavePendingRetryMessages
                        0x0001b6d1      0xa  Code  Gb  retry.o [73]
emHaveTransientLinkKeys
                        0x0002e075      0xc  Code  Gb  aps-keys-transient.o [73]
emHaveTrustCenterLinkKey
                        0x0001e719     0x16  Code  Gb  aps-keys.o [73]
emHeaderApsPayloadIndex
                        0x0001abd5     0x18  Code  Gb  zigbee-packet-header.o [73]
emHeaderNetworkPayloadIndex
                        0x0001aa95     0x24  Code  Gb  zigbee-packet-header.o [73]
emHeapBase              0x2000f7b0      0x4  Data  Lc  buffer-management.o [73]
emHeapLimit             0x2000f7b4      0x4  Data  Gb  buffer-management.o [73]
emIeeeAddressRequest    0x0001751b     0x10  Code  Gb  zigbee-device-util.o [73]
emIeeeAddressRequestToTarget
                        0x000174e7     0x34  Code  Gb  zigbee-device-util.o [73]
emInUseAsNextHop        0x0002a231     0x3e  Code  Gb  route-table.o [73]
emIncomingApsFrameCounters
                        0x20009af0      0x4  Data  Gb  ember-configuration.o [1]
emIncomingRouteRecord   0x00020bd9     0x32  Code  Gb  source-route-stub.o [72]
emInitEui64             0x0002dc11     0x18  Code  Gb  eui64.o [73]
emInitializeAddressTable
                        0x0000e331     0x1c  Code  Gb  address-table.o [73]
emInitializeBindingTable
                        0x0000eb89     0x44  Code  Gb  binding-table.o [48]
emInitializeBroadcast   0x0002a8ab     0x4c  Code  Gb  broadcast.o [73]
emInitializeBuffers     0x000071fd     0x38  Code  Gb  buffer-management.o [73]
emInitializeCbke        0x0002dd67      0x2  Code  Gb  cbke-crypto-engine-163k1-stub.o [49]
emInitializeCbke283k1   0x0002dd6d      0x2  Code  Gb  cbke-crypto-engine-283k1-stub.o [50]
emInitializeChild       0x00019e35     0xfc  Code  Gb  child.o [73]
emInitializeIdAssignment
                        0x00018851     0x90  Code  Gb  random-id.o [73]
emInitializeRouteTableEntry
                        0x0002a109     0x5e  Code  Gb  route-table.o [73]
emInitializeTableRouting
                        0x0002a167     0x52  Code  Gb  route-table.o [73]
emInitializeTrustCenterSecurity
                        0x00019ac9     0x1a  Code  Gb  aps-security.o [73]
emInstallCodeLibraryStatus
                        0x0003ff21      0x1  Data  Gb  install-code-tokens.o [61]
emIsActiveCoordinatorOrRouterNetworkIndex
                        0x00006957     0x22  Code  Gb  ember-multi-network-stub.o [66]
emIsBeaconValid         0x0000a583     0xc6  Code  Gb  beacon-handling.o [73]
emIsBlacklistedId       0x00018bc3     0x46  Code  Gb  random-id.o [73]
emIsBufferSizeOk        0x0001a88d     0x12  Code  Gb  zigbee-packet-header.o [73]
emIsConcentrator        0x0002a5d7     0x24  Code  Gb  route-table.o [73]
emIsCurrentNetworkStackEmpty
                        0x00006921      0x4  Code  Gb  ember-multi-network-stub.o [66]
emIsGpIdConflict        0x0001ea3d      0x4  Code  Gb  gp-stub.o [59]
emIsInUnicastTable      0x0002a919     0x36  Code  Gb  unicast-table.o [73]
emIsNetworkAlwaysOn     0x000068f1     0x22  Code  Gb  ember-multi-network-stub.o [66]
emIsNetworkJoined       0x000068cf     0x22  Code  Gb  ember-multi-network-stub.o [66]
emIsNodeInBroadcastTable
                        0x0002a723     0x10  Code  Gb  broadcast.o [73]
emIsNodeInRoutingTables
                        0x0002a513     0x1a  Code  Gb  route-table.o [73]
emIsNullKey             0x00019ac1      0x8  Code  Gb  aps-security.o [73]
emIsParentKeepAliveSupportKnown
                        0x00015105     0x24  Code  Gb  child-handling.o [73]
emIsStateJoiningOrRejoining
                        0x0000d40f     0x22  Code  Gb  ember-stack-common.o [73]
emIsTokenDataInitialized
                        0x0001e46f     0x24  Code  Gb  aps-keys.o [73]
emIsValidBuffer         0x00007655      0xc  Code  Gb  buffer-management.o [73]
emIsWellKnownKey        0x000253a9     0x22  Code  Gb  network-steering.o [28]
emIsZigbeeStateUnauthenticated
                        0x00015573     0x26  Code  Gb  network.o [73]
emJitTransmitComplete   0x0002b805     0xde  Code  Gb  jit.o [73]
emJoinNetworkInternal   0x0000838f     0x74  Code  Gb  association.o [73]
emLeaveCommandSent      0x00018319     0x42  Code  Gb  leave.o [73]
emLeaveNetworkQuietly   0x00017fef     0xcc  Code  Gb  leave.o [73]
emLinkQualityToCost     0x0001bfa5     0x22  Code  Gb  neighbor.o [73]
emLinkQualityToCostHysteresis
                        0x0001bf1b     0x64  Code  Gb  neighbor.o [73]
emLoadKeyIntoCore       0x0002e3fd     0x14  Code  Gb  aes-efm32.o [73]
emLoadNetworkKey        0x00019a59     0x2e  Code  Gb  aps-security.o [73]
emLocalEui64            0x2000f814      0x8  Data  Gb  eui64.o [73]
emLowerMacEvent         0x2000a3b4      0x8  Data  Gb  lower-mac-rail-802.15.4.o [73]
emLowerMacEventHandler  0x0001d0f7     0xfe  Code  Gb  lower-mac-rail-802.15.4.o [73]
emLowerMacState         0x2000a3ad      0x1  Data  Gb  lower-mac-rail-802.15.4.o [73]
emLpdEvent              0x2000f8d8      0x8  Data  Gb  child-handling.o [73]
emLpdEventHandler       0x00015417     0x3c  Code  Gb  child-handling.o [73]
emMacAssociateRequest   0x0001a569     0x26  Code  Gb  command.o [73]
emMacAssociateRespond   0x0001a54b     0x1e  Code  Gb  command.o [73]
emMacCancelPolls        0x0001cacb     0x12  Code  Gb  mac-dispatch.o [73]
emMacDataPollSuperRetriesEvent
                        0x2000f994      0x8  Data  Gb  network.o [73]
emMacDataPollSuperRetriesEventHandler
                        0x00016fc5     0x3a  Code  Gb  network.o [73]
emMacFilterMatchCheck   0x0002c1c9    0x118  Code  Gb  zigbee-mac-header.o [73]
emMacHeaderGetInfoElementsLength
                        0x0001ca09     0x18  Code  Gb  mac-info-element-parsing-stub.o [74]
emMacIncomingQueueIsEmpty
                        0x0001ca29      0xa  Code  Gb  mac-dispatch.o [73]
emMacInit               0x0001ca81     0x4a  Code  Gb  mac-dispatch.o [73]
emMacIsEmpty            0x0001ca79      0x6  Code  Gb  mac-dispatch.o [73]
emMacMaxRetries         0x20009ee6      0x1  Data  Gb  lower-mac-rail-802.15.4.o [73]
emMacOutgoingSequenceNumber
                        0x2000a3b1      0x1  Data  Lc  lower-mac-rail-802.15.4.o [73]
emMacPacketSendCompleteCallback
                        0x0001cca9     0x44  Code  Gb  zigbee-upper-mac.o [73]
emMacParseInfoElementsInPacket
                        0x0001c9ed     0x1c  Code  Gb  mac-info-element-parsing-stub.o [74]
emMacPassthroughHandler
                        0x0001cbc3      0xc  Code  Gb  mac-dispatch.o [73]
emMacPassthroughMessageType
                        0x0001cbcf     0x72  Code  Gb  mac-dispatch.o [73]
emMacPrepareTxHandler   0x0001cadd     0xe4  Code  Gb  mac-dispatch.o [73]
emMacRetries            0x2000ffe5      0x1  Data  Gb  network.o [73]
emMacScanType           0x2000f900      0x1  Data  Gb  zigbee-scan.o [73]
emMacSendBeacon         0x0001a4c5     0x5c  Code  Gb  command.o [73]
emMacSendCoordinatorRealignment
                        0x0001a521     0x20  Code  Gb  command.o [73]
emMacSendEnhancedBeacon
                        0x000150d1      0x2  Code  Gb  enhanced-beacon-request-stub.o [74]
emMacSetPermitAssociation
                        0x0001a475     0x12  Code  Gb  command.o [73]
emMacSubmit             0x0001ca33      0xc  Code  Gb  mac-dispatch.o [73]
emMacToNetworkQueue     0x2000ff2a      0x2  Data  Gb  mac-dispatch.o [73]
emMacTransmitCompleteCallback
                        0x00016669     0xb6  Code  Gb  network.o [73]
emMakeBeaconPayload     0x0000a7af     0xc0  Code  Gb  beacon-handling.o [73]
emMakeBroadcastBitmask  0x0001be9d     0x7e  Code  Gb  neighbor.o [73]
emMakeMessage           0x00020997     0x10  Code  Gb  legacy-packet-buffer.o [73]
emMakeMessageUsingVaList
                        0x0002095b     0x3c  Code  Gb  legacy-packet-buffer.o [73]
emMakeNetworkStatusMessage
                        0x0002c5f7     0x2c  Code  Gb  route-error.o [73]
emMakeStackJitMessage   0x0002b6e9    0x11a  Code  Gb  jit.o [73]
emMakeZigbeeCommandHeader
                        0x0001aa57     0x3e  Code  Gb  zigbee-packet-header.o [73]
emMakeZigbeeHeader      0x0001a8b9    0x19e  Code  Gb  zigbee-packet-header.o [73]
emMallocFreeList        0x2000f7a8      0x2  Data  Gb  buffer-management.o [73]
emManufacturerCode      0x20009e98      0x2  Data  Gb  zigbee-device.o [73]
emMarkApsBuffers        0x00025bbd     0x34  Code  Gb  aps-retry.o [73]
emMarkApsTransientKeys  0x0002e315      0x6  Code  Gb  aps-keys-transient.o [73]
emMarkBeaconBuffers     0x0000a0cb      0x8  Code  Gb  beacon-handling.o [73]
emMarkBlacklistedIds    0x00018c39     0x1e  Code  Gb  random-id.o [73]
emMarkBuffer            0x00007359     0x6a  Code  Gb  buffer-management.o [73]
emMarkCbkeBuffers       0x000067ab      0x2  Code  Wk  zigbee-stack.o [73]
emMarkCbkeBuffers283k1  0x00007a53      0x2  Code  Wk  zigbee-stack.o [73]
emMarkCbkeVerifyBuffer  0x0000beef      0x2  Code  Wk  zigbee-stack.o [73]
emMarkCbkeVerifyBuffer283k1
                        0x0000c08b      0x2  Code  Wk  zigbee-stack.o [73]
emMarkEndDeviceBindRequests
                        0x00005e67      0x2  Code  Wk  zigbee-stack.o [73]
emMarkEnhancedBeaconBuffers
                        0x000150a1      0x2  Code  Gb  enhanced-beacon-request-stub.o [74]
emMarkFragmentBuffers   0x000045f3      0x2  Code  Wk  zigbee-stack.o [73]
emMarkGpBuffers         0x000066cf      0x2  Code  Wk  zigbee-stack.o [73]
emMarkKeyEstablishmentBuffers
                        0x0000b513      0x2  Code  Wk  zigbee-stack.o [73]
emMarkNwkBuffers        0x00007ed1     0x1e  Code  Gb  association.o [73]
emMarkRetryBuffers      0x0001b545     0x24  Code  Gb  retry.o [73]
emMarkStoreForwardBuffers
                        0x0002ae31     0x24  Code  Gb  store-forward.o [73]
emMarkTaskActive        0x000049eb      0xe  Code  Gb  event-control.o [73]
emMarkTokenCacheBuffer  0x00017989      0x6  Code  Gb  token-cache.o [73]
emMarkTrustCenterUtilBuffers
                        0x0001c225      0x8  Code  Gb  trust-center-util.o [73]
emMarkZdoChannelBuffers
                        0x00032005     0x1a  Code  Gb  zdo-channel.o [73]
emMarkZigbeeScanBuffer  0x000056b9      0x8  Code  Gb  zigbee-scan.o [73]
emMarkZllBuffers        0x00007a4d      0x2  Code  Gb  zll-stubs.o [75]
emMaxApsUnicastMessages
                        0x20009ed6      0x1  Data  Gb  ember-configuration.o [1]
emMaxEndDeviceChildren  0x20009edb      0x1  Data  Gb  ember-configuration.o [1]
emMaxHops               0x20009edc      0x1  Data  Gb  ember-configuration.o [1]
emMaximumApsPayloadWithOptions
                        0x0002048f     0x18  Code  Gb  application-support.o [73]
emMaximumIncomingTransferSize
                        0x20009e9c      0x2  Data  Gb  zigbee-device.o [73]
emMaximumOutgoingTransferSize
                        0x20009e9e      0x2  Data  Gb  zigbee-device.o [73]
emMaybeWakeupApsRetry   0x00025dff     0x24  Code  Gb  aps-retry.o [73]
emMemoryByteCompare     0x0000d3eb     0x1e  Code  Gb  ember-stack-common.o [73]
emMfgSecurityConfigModifyKey
                        0x0002ec91     0x2c  Code  Gb  security-config-mfg.o [73]
emMfglibMode            0x2000ffdf      0x1  Data  Gb  lower-mac-rail-802.15.4.o [73]
emMfglibRxCallback      0x2000f884      0x4  Data  Gb  lower-mac-rail-802.15.4.o [73]
emModifySecurityState   0x0001e40b      0x6  Code  Gb  aps-keys.o [73]
emMsSinceLastSuccessfulPoll
                        0x0001a783     0x12  Code  Gb  child-aging.o [73]
emMtorrFlowControl      0x20009efa      0x1  Data  Gb  route-discovery.o [73]
emMultiNetworkLibraryStatus
                        0x0003ff15      0x1  Data  Gb  ember-multi-network-stub.o [66]
emMultiPanEventData     0x2000f6bc     0x58  Data  Gb  ember-configuration.o [1]
emMultiPanEventTask     0x2000ffe9      0x1  Data  Gb  multi-pan-common.o [67]
emMultiPanInit          0x0002dd61      0x2  Code  Gb  multi-pan-common.o [67]
emMultiPanLibraryStatus
                        0x0003ff16      0x1  Data  Gb  multi-pan-stub.o [67]
emMultiPhyInit          0x0001a7b1      0x4  Code  Gb  ember-multi-phy-stub.o [73]
emMultinetworkRadioInit
                        0x0000686b     0x4a  Code  Gb  ember-multi-network-stub.o [66]
emNcpLibraryStatus      0x0003ff18      0x1  Data  Wk  ember-library.o [73]
emNeedsFurtherTransmissions
                        0x00016de9     0x32  Code  Gb  network.o [73]
emNeighborCost          0x0001bf7f     0x26  Code  Gb  neighbor.o [73]
emNeighborData          0x20009acc      0x4  Data  Gb  ember-configuration.o [1]
emNeighborEntryIncomingCost
                        0x0001bfc7     0x2c  Code  Gb  neighbor.o [73]
emNeighborEntryIndex    0x0001b99d     0x14  Code  Gb  neighbor.o [73]
emNeighborEntrySetAge   0x0001c123      0xe  Code  Gb  neighbor.o [73]
emNeighborEntrySetIncomingCost
                        0x0001c035      0xe  Code  Gb  neighbor.o [73]
emNeighborEntrySetOutgoingCost
                        0x0001c043      0xc  Code  Gb  neighbor.o [73]
emNeighborEvent         0x2000fb48      0x8  Data  Gb  neighbor.o [73]
emNeighborEventHandler  0x0001c04f     0xc8  Code  Gb  neighbor.o [73]
emNeighborExchangeEventControls
                        0x2000f72c      0x8  Data  Gb  ember-configuration.o [1]
emNeighborExchangeEventHandler
                        0x0002cacf     0x62  Code  Gb  neighbor-exchange.o [73]
emNeighborFindEntry     0x0001b9b1     0x1c  Code  Gb  neighbor.o [73]
emNeighborFirstCurrentKeyUse
                        0x000124d3     0x40  Code  Gb  zigbee-neighbor.o [73]
emNeighborIdConflict    0x00018a6d     0x26  Code  Gb  random-id.o [73]
emNeighborInit          0x0001b8a9     0x54  Code  Gb  neighbor.o [73]
emNeighborProcessQuality
                        0x0001b875     0x34  Code  Gb  neighbor.o [73]
emNetworkAddressRequest
                        0x000175b3     0x28  Code  Gb  zigbee-device-util.o [73]
emNetworkCheckIncomingQueue
                        0x00015bf9     0x4a  Code  Gb  network.o [73]
emNetworkDescriptor     0x20009ac4      0x4  Data  Gb  ember-configuration.o [1]
emNetworkDescriptorInit
                        0x000067ad     0xbe  Code  Gb  ember-multi-network-stub.o [66]
emNetworkEncrypt        0x000159b7     0x88  Code  Gb  network.o [73]
emNetworkFoundCallback  0x2000f8f4      0x4  Data  Gb  zigbee-scan.o [73]
emNetworkManagementEventControls
                        0x2000f724      0x8  Data  Gb  ember-configuration.o [1]
emNetworkManagementEventHandler
                        0x00017cd3     0x5c  Code  Gb  management.o [73]
emNetworkManagementInit
                        0x00017b11     0x26  Code  Gb  management.o [73]
emNetworkPanInfoDataInit
                        0x00011cfd     0x58  Code  Gb  multi-pan-stub.o [67]
emNetworkProcessIncoming
                        0x00015c61    0x136  Code  Gb  network.o [73]
emNetworkSend           0x00015599     0x26  Code  Gb  network.o [73]
emNetworkSendBroadcast  0x000155fd     0xa8  Code  Gb  network.o [73]
emNetworkSendUnicast    0x000156d5    0x234  Code  Gb  network.o [73]
emNetworkSubmitUnicast  0x00015933      0x2  Code  Gb  network.o [73]
emNetworkTimeoutRequestEvent
                        0x2000f8cc      0x8  Data  Gb  child-handling.o [73]
emNetworkTimeoutRequestEventHandler
                        0x00015397     0x80  Code  Gb  child-handling.o [73]
emNetworkToApplicationQueue
                        0x2000ff2c      0x2  Data  Gb  network.o [73]
emNetworkTransmitComplete
                        0x00016729    0x26c  Code  Gb  network.o [73]
emNetworkTransmitCompleteCallback
                        0x000261c7     0x92  Code  Gb  aps-retry.o [73]
emNewBroadcastEntryThreshold
                        0x2000ff35      0x1  Data  Gb  broadcast.o [73]
emNextApsFrameCounter   0x0002b07f     0x1a  Code  Gb  aps-encryption.o [73]
emNodeDescriptorRequest
                        0x000174c9     0x1e  Code  Gb  zigbee-device-util.o [73]
emNoteChildChange       0x0001a219     0x64  Code  Gb  child.o [73]
emNoteIncomingFrameCounter
                        0x000123bf     0x12  Code  Gb  zigbee-neighbor.o [73]
emNoteJoinAuthenticated
                        0x00007f15     0xe4  Code  Gb  association.o [73]
emNoteJoinFailureForTimeout
                        0x00007e51      0x8  Code  Gb  association.o [73]
emNoteJoiningChange     0x00008f7d     0x30  Code  Gb  association.o [73]
emNoteLinkKeyRequest    0x00007e59     0x34  Code  Gb  association.o [73]
emNoteNodeTypeChange    0x000069f3      0xa  Code  Gb  ember-multi-network-stub.o [66]
emNoteSleepyDeviceInKeyTable
                        0x0002e3fb      0x2  Code  Gb  aps-keys-full-stub.o [70]
emNoteSuccessfulPoll    0x0001a767     0x1c  Code  Gb  child-aging.o [73]
emNoteSuccessfulPollReceived
                        0x0001a729     0x3e  Code  Gb  child-aging.o [73]
emNoteUnicastRetryEvent
                        0x00025cd3      0x2  Code  Gb  aps-retry.o [73]
emNumMultiPanForks      0x20009ec9      0x1  Data  Gb  ember-configuration.o [1]
emOverrideTrustCenterEui64
                        0x0001e55f      0x4  Code  Gb  aps-keys.o [73]
emPacketHandoffIncomingCallback
                        0x0001cea1     0x14  Code  Gb  zigbee-upper-mac.o [73]
emPacketValidateCheck   0x0002c4fd     0x48  Code  Gb  packet-validate.o [68]
emPacketValidateLibrary
                        0x0003ff20      0x1  Data  Gb  packet-validate.o [68]
emPacketValidateLibraryInfo
                        0x0002c2e1      0xa  Code  Gb  packet-validate.o [68]
emPanIdConflictReportThreshold
                        0x20009edf      0x1  Data  Gb  ember-configuration.o [1]
emPanInfoData           0x20009ac8      0x4  Data  Gb  ember-configuration.o [1]
emPermitJoiningEventControls
                        0x2000f71c      0x8  Data  Gb  ember-configuration.o [1]
emPhyRailHandle         0x2000a3c8      0x4  Data  Gb  lower-mac-rail-802.15.4.o [73]
emPhyToMacQueueAdd      0x0000789b     0x1e  Code  Gb  buffer-management.o [73]
emPhyToMacQueueIsEmpty  0x000078d5      0x6  Code  Gb  buffer-management.o [73]
emPhyToMacQueueRemoveHead
                        0x000078b9     0x1c  Code  Gb  buffer-management.o [73]
emPickNewId             0x0001893d     0x52  Code  Gb  random-id.o [73]
emPickRandomId          0x000188e1     0x5c  Code  Gb  random-id.o [73]
emPointsIntoHeap        0x0000725b     0x16  Code  Gb  buffer-management.o [73]
emPollDelayingEvent     0x2000f7c4      0x8  Data  Gb  ember-multi-network-stub.o [66]
emPollDelayingHandler   0x000069f1      0x2  Code  Gb  ember-multi-network-stub.o [66]
emPowerDescriptor       0x20009e9a      0x2  Data  Gb  zigbee-device.o [73]
emPreApsEncryptCheck    0x0002b3fb     0x92  Code  Gb  aps-encryption.o [73]
emPrepareRetryEntryForSubmission
                        0x000169df    0x312  Code  Gb  network.o [73]
emPrepareStoreAndForwardEntryForSubmission
                        0x00016d31     0xa0  Code  Gb  network.o [73]
emPrintfInternal        0x000226e7    0x1d0  Code  Gb  ember-printf.o [15]
emProcessApplicationLinkKey
                        0x0002e3f7      0x4  Code  Gb  aps-keys-full-stub.o [70]
emProcessIeeeListResponse
                        0x0001a467      0x2  Code  Gb  zdo-r22-stub.o [74]
emProcessIncomingBeacon
                        0x0000a1e3    0x340  Code  Gb  beacon-handling.o [73]
emProcessIncomingBeaconRequest
                        0x0000a141     0xa2  Code  Gb  beacon-handling.o [73]
emProcessIncomingBroadcast
                        0x00016441    0x132  Code  Gb  network.o [73]
emProcessJoinRequest    0x000088bd    0x1da  Code  Gb  association.o [73]
emProcessJoinResponse   0x00008aa5    0x1aa  Code  Gb  association.o [73]
emProcessLinkPowerDelta
                        0x0001a46d      0x2  Code  Gb  zdo-r22-stub.o [74]
emProcessManagementCommand
                        0x00017bbd     0xd4  Code  Gb  management.o [73]
emProcessNeighborExchange
                        0x0002c879    0x24a  Code  Gb  neighbor-exchange.o [73]
emProcessNetworkHeader  0x00016e1b     0x9a  Code  Gb  network.o [73]
emProcessNetworkTimeoutRequest
                        0x0001523b     0x68  Code  Gb  child-handling.o [73]
emProcessNetworkTimeoutResponse
                        0x00015301     0x96  Code  Gb  child-handling.o [73]
emProcessRequestKey     0x0001c50f    0x142  Code  Gb  trust-center-util.o [73]
emProcessVerifyKey      0x0002e119     0xe4  Code  Gb  aps-keys-transient.o [73]
emProcessZllInterpanStackMessage
                        0x00007a33      0x4  Code  Gb  zll-stubs.o [75]
emPurgeAddressTableEntryPendingMessages
                        0x00026591     0x2e  Code  Gb  aps-retry.o [73]
emRadioConfigScheduledCallback
                        0x0001e2a1      0x2  Code  Wk  lower-mac-rail-802.15.4.o [73]
emRadioEnableAddressMatching
                        0x0001e04f     0x28  Code  Gb  lower-mac-rail-802.15.4.o [73]
emRadioEnableAutoAck    0x0001e077     0x3e  Code  Gb  lower-mac-rail-802.15.4.o [73]
emRadioEnablePta        0x0001e21d     0x34  Code  Gb  lower-mac-rail-802.15.4.o [73]
emRadioGetRandomNumbers
                        0x0001e031     0x1e  Code  Gb  lower-mac-rail-802.15.4.o [73]
emRadioInit             0x0001e01d      0x2  Code  Gb  lower-mac-rail-802.15.4.o [73]
emRadioReceiveCompleteCallback
                        0x0001cced    0x1aa  Code  Gb  zigbee-upper-mac.o [73]
emRadioSeedRandom       0x0002dc29     0x12  Code  Gb  phy-util.o [73]
emReadGpTokens          0x0001ea3b      0x2  Code  Gb  gp-stub.o [59]
emReadRadioTokens       0x000092e1     0x2e  Code  Gb  association.o [73]
emReadSecurityToken     0x0001e433     0x3c  Code  Gb  aps-keys.o [73]
emRealECCLibraryPresent
                        0x0002dd63      0x4  Code  Gb  cbke-crypto-engine-163k1-stub.o [49]
emRealECCLibraryPresent283k1
                        0x0002dd69      0x4  Code  Gb  cbke-crypto-engine-283k1-stub.o [50]
emReallyAllocateBuffer  0x000077d7     0x9e  Code  Gb  buffer-management.o [73]
emReallyCopyToLinkedBuffers
                        0x00020811     0x5a  Code  Gb  legacy-packet-buffer.o [73]
emReallyFillBuffer      0x00007875     0x26  Code  Gb  buffer-management.o [73]
emReallyGetNetworkKey   0x00019671     0x2a  Code  Gb  aps-security.o [73]
emReallySendRouteRequest
                        0x0002b9a9    0x214  Code  Gb  route-discovery.o [73]
emReclaimUnusedBuffers  0x000073fb    0x252  Code  Gb  buffer-management.o [73]
emReconstructDecryptedHeader
                        0x0001a82f     0x3a  Code  Gb  zigbee-packet-header.o [73]
emReencryptRetries      0x20009ef0      0x1  Data  Gb  aps-retry.o [73]
emRemoteModifyBinding   0x0000ead9     0xa4  Code  Gb  binding-table.o [48]
emRemoveEbrPowerAndEui64Entry
                        0x000150b3      0x2  Code  Gb  enhanced-beacon-request-stub.o [74]
emRemoveNeighbor        0x0001bb47     0xee  Code  Gb  neighbor.o [73]
emRemoveNeighborEui     0x0001bced     0x56  Code  Gb  neighbor.o [73]
emRemoveTransientLinkKey
                        0x0002e0c5     0x14  Code  Gb  aps-keys-transient.o [73]
emReplaceNeighbor       0x0001bc3d     0x10  Code  Gb  neighbor.o [73]
emRequestKeyEventControls
                        0x2000f734      0x8  Data  Gb  ember-configuration.o [1]
emRequestKeyEventHandler
                        0x0001e855     0x6e  Code  Gb  aps-keys.o [73]
emRequestKeyProcessNodeDescriptorResponse
                        0x0001e95d     0x94  Code  Gb  aps-keys.o [73]
emRequestKeyTimeout     0x2000ffd2      0x1  Data  Gb  ember-configuration.o [1]
emRequestKeyTimeoutControl
                        0x0001e825     0x30  Code  Gb  aps-keys.o [73]
emRequestLinkKeyUpdate  0x2000ffe1      0x1  Data  Gb  aps-keys-transient.o [73]
emRescheduleNeighborExchange
                        0x0002cb31     0x14  Code  Gb  neighbor-exchange.o [73]
emResetApsFrameCounter  0x0002b099     0x1a  Code  Gb  aps-encryption.o [73]
emResetNwkIncomingFrameCounters
                        0x00012317     0x28  Code  Gb  zigbee-neighbor.o [73]
emResetNwkOutgoingFrameCounter
                        0x0002aa39     0x26  Code  Gb  crypto.o [73]
emRestoreCurrentNetworkInternal
                        0x0000692d      0x2  Code  Gb  ember-multi-network-stub.o [66]
emRetryCancel           0x0001b681     0x40  Code  Gb  retry.o [73]
emRetryDelayEvent       0x2000fb70      0x8  Data  Gb  retry.o [73]
emRetryDelayEventHandler
                        0x0001b86d      0x6  Code  Gb  retry.o [73]
emRetryInit             0x0001b75f     0x20  Code  Gb  retry.o [73]
emRetryIsEmpty          0x0001b6c1     0x10  Code  Gb  retry.o [73]
emRetryMessageToVerifyTransientLinkKey
                        0x00019a4b      0x4  Code  Gb  aps-security.o [73]
emRetryPurge            0x0001b6db     0x78  Code  Gb  retry.o [73]
emRetryQueue            0x20009ad4      0x4  Data  Gb  ember-configuration.o [1]
emRetryQueueSize        0x20009ed2      0x1  Data  Gb  ember-configuration.o [1]
emRetrySubmit           0x0001b63b     0x46  Code  Gb  retry.o [73]
emRetryTransmit         0x0001b77f     0x2c  Code  Gb  retry.o [73]
emRetryTransmitComplete
                        0x0001b7ab     0x3e  Code  Gb  retry.o [73]
emRouteData             0x20009ab0      0x4  Data  Gb  ember-configuration.o [1]
emRouteRecordTableClearChildFlags
                        0x0002a5fb     0x2e  Code  Gb  route-table.o [73]
emRouteRecordTableData  0x20009ab4      0x4  Data  Gb  ember-configuration.o [1]
emRouteRecordTableGetChildFlag
                        0x0002a665     0x30  Code  Gb  route-table.o [73]
emRouteRecordTableSetOrClearChildFlag
                        0x0002a629     0x3c  Code  Gb  route-table.o [73]
emRouteTableNextHop     0x0002a52d     0x50  Code  Gb  route-table.o [73]
emRouteTableSize        0x20009ecc      0x1  Data  Gb  ember-configuration.o [1]
emRouterNeighborTableSize
                        0x20009ed1      0x1  Data  Gb  ember-configuration.o [1]
emScanCompleteCallback  0x2000f8f8      0x4  Data  Gb  zigbee-scan.o [73]
emScanCompleteHandler   0x00008fb1    0x13c  Code  Gb  association.o [73]
emScheduleNextNetworkTimeoutEvent
                        0x00015453     0x30  Code  Gb  child-handling.o [73]
emScheduleNextPoll      0x000069e9      0x8  Code  Gb  ember-multi-network-stub.o [66]
emSearchDiscoveryTable  0x0002a3e5     0x64  Code  Gb  route-table.o [73]
emSecurityCoreLibraryStatus
                        0x0003e234      0x1  Data  Gb  trust-center-util.o [73]
emSecurityEui64         0x0001233f     0x58  Code  Gb  zigbee-neighbor.o [73]
emSecurityHardwareInit  0x0002e411      0x6  Code  Gb  aes-efm32.o [73]
emSecurityIncrementOutgoingFrameCounter
                        0x0002a9e1     0x42  Code  Gb  crypto.o [73]
emSecurityInit          0x0002aa5f     0x44  Code  Gb  crypto.o [73]
emSecurityLinkKeysLibraryStatus
                        0x0003ff17      0x1  Data  Gb  aps-keys-full-stub.o [70]
emSecurityOkayToStartNetworkOperation
                        0x00018e79     0x4e  Code  Gb  aps-security.o [73]
emSecurityReadApsFrameCounterToken
                        0x0002b059     0x1a  Code  Gb  aps-encryption.o [73]
emSecurityReadNetworkFrameCounterToken
                        0x0002a9b9     0x28  Code  Gb  crypto.o [73]
emSendApsCommand        0x000191e7    0x16e  Code  Gb  aps-security.o [73]
emSendApsMessage        0x0001fb79    0x2f2  Code  Gb  application-support.o [73]
emSendKey               0x0001941b    0x104  Code  Gb  aps-security.o [73]
emSendLinkPowerDelta    0x0001a469      0x4  Code  Gb  zdo-r22-stub.o [74]
emSendMulticastsToSleepyAddress
                        0x2000ffd3      0x1  Data  Gb  ember-configuration.o [1]
emSendNetworkKey        0x0001c4d9     0x26  Code  Gb  trust-center-util.o [73]
emSendNetworkTimeoutRequest
                        0x000151e1     0x5a  Code  Gb  child-handling.o [73]
emSendNetworkTimeoutResponse
                        0x000152b5     0x4c  Code  Gb  child-handling.o [73]
emSendOurEndDeviceAnnouncement
                        0x0001758f     0x24  Code  Gb  zigbee-device-util.o [73]
emSendPanIdConflictReport
                        0x00017e19     0x5c  Code  Gb  management.o [73]
emSendParentAnnounceEventControls
                        0x2000f73c      0x8  Data  Gb  ember-configuration.o [1]
emSendParentAnnounceEventHandler
                        0x0001766b     0x2c  Code  Gb  zigbee-device-util.o [73]
emSendParentAnnouncement
                        0x000176a1    0x124  Code  Gb  zigbee-device-util.o [73]
emSendRejoinResponse    0x0000883d     0x76  Code  Gb  association.o [73]
emSendReply             0x000204c1     0x4a  Code  Gb  application-support.o [73]
emSendReportOrUpdate    0x00017d2f     0x8a  Code  Gb  management.o [73]
emSendRouteError        0x0002c5b1     0x46  Code  Gb  route-error.o [73]
emSendRouteRecord       0x0002c139     0x8e  Code  Gb  route-discovery.o [73]
emSendRouteReply        0x0002bca3     0xd2  Code  Gb  route-discovery.o [73]
emSendRouteRequest      0x0002b995     0x14  Code  Gb  route-discovery.o [73]
emSendTimeoutRequest    0x000151bb     0x26  Code  Gb  child-handling.o [73]
emSendUpdateDevice      0x000193cd     0x46  Code  Gb  aps-security.o [73]
emSendZigDevMessage     0x000177e5    0x10c  Code  Gb  zigbee-device-util.o [73]
emSetAllChildrenToAlternateKey
                        0x0001a15f     0x2e  Code  Gb  child.o [73]
emSetAllNeighborsUsingAlternateKey
                        0x0001c131     0x26  Code  Gb  neighbor.o [73]
emSetAllSleepyChildFlags
                        0x00019d97     0x60  Code  Gb  child.o [73]
emSetBdbTcLinkKeyExchangeAttempts
                        0x0001e9f1      0x6  Code  Gb  aps-keys.o [73]
emSetBufferLength       0x000076c3     0x90  Code  Gb  buffer-management.o [73]
emSetBufferLink         0x00007787     0x4a  Code  Gb  buffer-management.o [73]
emSetChildIdToken       0x0001a27d     0x32  Code  Gb  child.o [73]
emSetChildTokenForCurrentNetwork
                        0x00011d85     0x14  Code  Gb  multi-pan-stub.o [67]
emSetCurrentNetworkInternal
                        0x0000692b      0x2  Code  Gb  ember-multi-network-stub.o [66]
emSetEndDeviceTimeout   0x00015179     0x42  Code  Gb  child-handling.o [73]
emSetMacRxOnWhenIdleState
                        0x0001cec1     0x22  Code  Gb  zigbee-upper-mac.o [73]
emSetNeighborEui64      0x0001bff3     0x42  Code  Gb  neighbor.o [73]
emSetNeighboringDevicesUsingAlternateKey
                        0x000124ab     0x28  Code  Gb  zigbee-neighbor.o [73]
emSetNetworkKey         0x000195c1     0xa8  Code  Gb  aps-security.o [73]
emSetNetworkManagementState
                        0x00017ba3     0x1a  Code  Gb  management.o [73]
emSetNetworkParameters  0x000091dd     0x40  Code  Gb  association.o [73]
emSetNetworkState       0x0000d305     0xb0  Code  Gb  ember-stack-common.o [73]
emSetNewPowerCalculatedUsingLpd
                        0x0001a46f      0x2  Code  Gb  zdo-r22-stub.o [74]
emSetNodeId             0x00018723     0x14  Code  Gb  zigbee-stack.o [73]
emSetNodeType           0x000090ed     0x6e  Code  Gb  association.o [73]
emSetNwkUpdateId        0x00017b89     0x1a  Code  Gb  management.o [73]
emSetPanId              0x0001875b     0x12  Code  Gb  zigbee-stack.o [73]
emSetParent             0x00009505     0x86  Code  Gb  association.o [73]
emSetParentKeepAliveSupportUnknown
                        0x000150d5     0x30  Code  Gb  child-handling.o [73]
emSetRouteStatusAndZeroAge
                        0x0002a0f9     0x10  Code  Gb  route-table.o [73]
emSetSleepyBroadcast    0x0002b63d     0x2c  Code  Gb  jit.o [73]
emSetSleepyBroadcastMessageSentHandlerPending
                        0x0002b669     0x12  Code  Gb  jit.o [73]
emSetTrustCenterData    0x0001e389     0x70  Code  Gb  aps-keys.o [73]
emSetTrustCenterEui64   0x0001e55b      0x4  Code  Gb  aps-keys.o [73]
emSetUpdateTcLinkKeyState
                        0x0001e9fd      0x6  Code  Gb  aps-keys.o [73]
emSetZigbeeEventNetworkIndex
                        0x0000691b      0x2  Code  Gb  ember-multi-network-stub.o [66]
emSetZigbeeSourceIeeeAddress
                        0x0001aaf5     0x24  Code  Gb  zigbee-packet-header.o [73]
emSleepyBroadcastEvent  0x2000f97c      0x8  Data  Gb  jit.o [73]
emSleepyBroadcastEventHandler
                        0x0002b67b     0x6e  Code  Gb  jit.o [73]
emSleepyBroadcastHeader
                        0x2000f984      0x2  Data  Gb  jit.o [73]
emSourceRouteFindIndex  0x00020bd3      0x4  Code  Gb  source-route-stub.o [72]
emSourceRouteSubframeIndex
                        0x0001a869     0x24  Code  Gb  zigbee-packet-header.o [73]
emSourceRouteTableInit  0x00020c1b      0x2  Code  Gb  source-route-stub.o [72]
emSourceRouteUpdateEventControls
                        0x2000f754      0x8  Data  Gb  ember-configuration.o [1]
emSourceRouteUpdateEventHandler
                        0x00020bd1      0x2  Code  Gb  source-route-stub.o [72]
emSourceRouteUpdateInit
                        0x00020c1d      0x2  Code  Gb  source-route-stub.o [72]
emSpoofDeviceAnnouncement
                        0x00017537     0x4c  Code  Gb  zigbee-device-util.o [73]
emStackEnergyScanHandler
                        0x0003223d      0x6  Code  Gb  zdo-channel.o [73]
emStackTask             0x2000ffdb      0x1  Data  Gb  zigbee-stack.o [73]
emStackTokenPrimitive   0x000179b5     0x90  Code  Gb  token-cache.o [73]
emStandAloneEncryptBlock
                        0x0002e417     0x16  Code  Gb  aes-efm32.o [73]
emStoreAndForwardDelayEvent
                        0x2000fc08      0x8  Data  Gb  store-forward.o [73]
emStoreAndForwardDelayEventHandler
                        0x0002af9f      0x6  Code  Gb  store-forward.o [73]
emStoreAndForwardInit   0x0002ae11     0x20  Code  Gb  store-forward.o [73]
emStoreAndForwardQueue  0x20009ad8      0x4  Data  Gb  ember-configuration.o [1]
emStoreAndForwardQueueSize
                        0x20009ed3      0x1  Data  Gb  ember-configuration.o [1]
emStoreAndForwardSubmit
                        0x0002af67     0x38  Code  Gb  store-forward.o [73]
emStoreAndForwardTransmit
                        0x0002aff7     0x20  Code  Gb  store-forward.o [73]
emStoreAndForwardTransmitComplete
                        0x0002b017     0x30  Code  Gb  store-forward.o [73]
emStoreIfBetterBeacon   0x0000a649    0x154  Code  Gb  beacon-handling.o [73]
emStoreInt32u           0x00020ff1     0x1e  Code  Gb  mac-header.o [73]
emSuperRetriesForMacDataPollComplete
                        0x00016f45     0x7a  Code  Gb  network.o [73]
emSupportedNetworks     0x20009ed0      0x1  Data  Gb  ember-configuration.o [1]
emSwitchNetworkKeys     0x00019533     0x7e  Code  Gb  aps-security.o [73]
emTaskCount             0x0003ff02      0x1  Data  Gb  ember-configuration.o [1]
emTaskDetermineNextEvent
                        0x00004849     0x2a  Code  Lc  event-control.o [73]
emTaskEnableIdling      0x000049f9      0x6  Code  Gb  event-control.o [73]
emTasks                 0x2000f764     0x3c  Data  Gb  ember-configuration.o [1]
emTrackNextEvent        0x000047cd     0x24  Code  Lc  event-control.o [73]
emTransientLinkKeyEventControls
                        0x2000f744      0x8  Data  Gb  ember-configuration.o [1]
emTransientLinkKeyEventHandler
                        0x0002e249     0xcc  Code  Gb  aps-keys-transient.o [73]
emTransientLinkKeyEventHandler::lastEventTimeMs
                        0x2000f8e4      0x4  Data  Lc  aps-keys-transient.o [73]
emTreeDepth             0x2000ffe8      0x1  Data  Gb  random-id.o [73]
emTrustCenterAddedAsNeighbor
                        0x00019b03     0x58  Code  Gb  aps-security.o [73]
emTrustCenterRequestKeyCleanup
                        0x0001c841     0x12  Code  Gb  trust-center-util.o [73]
emUnicastTable          0x2000fe54     0x20  Data  Gb  unicast-table.o [73]
emUnrecognizedBroadcastSequence
                        0x00018aed     0x1e  Code  Gb  random-id.o [73]
emUnusedPanIdFoundCallback
                        0x2000f8f0      0x4  Data  Gb  zigbee-scan.o [73]
emUpdateAddressTable    0x0000e50d     0x32  Code  Gb  address-table.o [73]
emUpdateBindingFlags    0x0000e869     0x4c  Code  Gb  binding-table.o [48]
emUpdateBindingRemoteNode
                        0x0000e7e7     0x82  Code  Gb  binding-table.o [48]
emUpdateBroadcastTable  0x0002a733     0x3a  Code  Gb  broadcast.o [73]
emUpdateNeighborTable   0x0001be41     0x5c  Code  Gb  neighbor.o [73]
emUpdateRouteReplyForRelaying
                        0x0002bd75     0xc4  Code  Gb  route-discovery.o [73]
emUpperMacEvent         0x2000fb18      0x8  Data  Gb  upper-mac.o [73]
emUpperMacEventHandler  0x0000af93      0x4  Code  Gb  upper-mac.o [73]
emUpperMacSubmit        0x0001ca47     0x32  Code  Gb  mac-dispatch.o [73]
emUsingDefaultLinkKey   0x00019b99     0x28  Code  Gb  aps-security.o [73]
emUsingGlobalLinkKey    0x00019b6b     0x2e  Code  Gb  aps-security.o [73]
emWeakestNeighborIndex  0x0002c817     0x62  Code  Gb  neighbor-exchange.o [73]
emWhatISupportAsAParent
                        0x2000f8d4      0x2  Data  Gb  child-handling.o [73]
emWriteHexInternal      0x00022669     0x2a  Code  Gb  ember-printf.o [15]
emWriteNodeData         0x000092a9     0x28  Code  Gb  association.o [73]
emWriteRadioAndNetworkTokens
                        0x00009231     0x70  Code  Gb  association.o [73]
emWriteSecurityToken    0x0001e411     0x22  Code  Gb  aps-keys.o [73]
emZDOConfigurationModeIgnored
                        0x00017939     0x38  Code  Gb  zigbee-device-util.o [73]
emZcAndZrCount          0x20009ee0      0x1  Data  Gb  ember-configuration.o [1]
emZigDevPrepareZdoMessage
                        0x000177c5     0x16  Code  Gb  zigbee-device-util.o [73]
emZigbeeApplicationEvent
                        0x2000f96c      0x8  Data  Gb  aps-retry.o [73]
emZigbeeApplicationEventHandler
                        0x00025dfb      0x4  Code  Gb  aps-retry.o [73]
emZigbeeAssociationEvent
                        0x2000f7f0      0x8  Data  Gb  association.o [73]
emZigbeeAssociationEventHandler
                        0x00008ed9     0x90  Code  Gb  association.o [73]
emZigbeeBeaconEventHandler
                        0x0000a86f     0x64  Code  Gb  beacon-handling.o [73]
emZigbeeBeaconStorageEvent
                        0x2000fb54      0x8  Data  Gb  beacon-handling.o [73]
emZigbeeBeaconStorageEventHandler
                        0x0000a8d3      0xc  Code  Gb  beacon-handling.o [73]
emZigbeeChildJoinNotify
                        0x00019355     0x22  Code  Gb  aps-security.o [73]
emZigbeeDestinationIeeeAddress
                        0x0001aab9     0x16  Code  Gb  zigbee-packet-header.o [73]
emZigbeeDeviceBindUnbindResponse
                        0x0002d697      0x2  Code  Gb  end-device-bind-stub.o [58]
emZigbeeDeviceEvent     0x2000fc14      0x8  Data  Gb  end-device-bind-stub.o [58]
emZigbeeDeviceEventHandler
                        0x0002d695      0x2  Code  Gb  end-device-bind-stub.o [58]
emZigbeeDeviceRequestHandler
                        0x00017031    0x19c  Code  Gb  zigbee-device-util.o [73]
emZigbeeDeviceResponseHandler
                        0x00017393    0x136  Code  Gb  zigbee-device-util.o [73]
emZigbeeLeaveEvent      0x2000f8c0      0x8  Data  Gb  leave.o [73]
emZigbeeLeaveEventHandler
                        0x00017ec5     0x50  Code  Gb  leave.o [73]
emZigbeeLeaveInternal   0x00017f2d     0xc2  Code  Gb  leave.o [73]
emZigbeeMaxNetworkRetries
                        0x20009ee1      0x1  Data  Gb  ember-configuration.o [1]
emZigbeePermitJoiningEventHandler
                        0x000081ab     0x2c  Code  Gb  association.o [73]
emZigbeeProApsEncryptPacket
                        0x0002ac27     0xce  Code  Gb  crypto.o [73]
emZigbeeProDecryptPacket
                        0x0002ad69     0xa6  Code  Gb  crypto.o [73]
emZigbeeProLibraryStatus
                        0x0003e238      0x1  Data  Gb  route-table.o [73]
emZigbeeProNetworkEncryptFlatPacket
                        0x0002acf5     0x66  Code  Gb  crypto.o [73]
emZigbeeProcessEnhancedBeaconRequest
                        0x000150a3      0x8  Code  Gb  enhanced-beacon-request-stub.o [74]
emZllDeviceAnnounceHandler
                        0x00007a3b      0x2  Code  Gb  zll-stubs.o [75]
emZllInit               0x00007a3d      0x2  Code  Gb  zll-stubs.o [75]
emZllLibraryStatus      0x0003ff1a      0x1  Data  Gb  zll-stubs.o [75]
emZllMacFilterMatchList
                        0x2000fe50      0x4  Data  Gb  zigbee-mac-header.o [73]
emZllScanComplete       0x00007a2d      0x4  Code  Gb  zll-stubs.o [75]
emZllSetRxOnWhenIdleEvent
                        0x2000fba4      0x8  Data  Gb  zll-stubs.o [75]
emZllSetRxOnWhenIdleEventHandler
                        0x00007a2b      0x2  Code  Gb  zll-stubs.o [75]
emZllStackStatusHandler
                        0x00007a37      0x4  Code  Gb  zll-stubs.o [75]
emZllSuspendRxOnWhenIdle
                        0x00007a43      0x2  Code  Gb  zll-stubs.o [75]
emZllTouchLinkEvent     0x2000fb9c      0x8  Data  Gb  zll-stubs.o [75]
emZllTouchLinkEventHandler
                        0x00007a29      0x2  Code  Gb  zll-stubs.o [75]
emberAddOrUpdateKeyTableEntry
                        0x0002e3f3      0x4  Code  Gb  aps-keys-full-stub.o [70]
emberAddTransientLinkKey
                        0x0002de41     0x3e  Code  Gb  aps-keys-transient.o [73]
emberAddressTableEntryIsActive
                        0x0002658d      0x4  Code  Gb  aps-retry.o [73]
emberAesHashSimple      0x00020aa3     0x2e  Code  Gb  aes-mmo.o [73]
emberAesMmoHashFinal    0x00020b0f     0xba  Code  Gb  aes-mmo.o [73]
emberAesMmoHashInit     0x00020ad1      0x6  Code  Gb  aes-mmo.o [73]
emberAesMmoHashUpdate   0x00020ad7     0x38  Code  Gb  aes-mmo.o [73]
emberAfAddToCurrentAppTasksCallback
                        0x00005d85      0x2  Code  Gb  callback-stub.o [1]
emberAfAllowNetworkWriteAttributeCallback
                        0x00005d87      0x4  Code  Gb  callback-stub.o [1]
emberAfAnalogDiscreteThresholds
                        0x000391dc     0x14  Data  Lc  util.o [46]
emberAfApsRetryOverride
                        0x2000ff4a      0x1  Data  Lc  util.o [46]
emberAfAttributeReadAccessCallback
                        0x00005d8b      0x4  Code  Gb  callback-stub.o [1]
emberAfAttributeValueSize
                        0x00014c55     0x4c  Code  Gb  attribute-size.o [46]
emberAfAttributeWriteAccessCallback
                        0x00005d8f      0x4  Code  Gb  callback-stub.o [1]
emberAfBasicClusterResetToFactoryDefaultsCallback
                        0x00030fa5     0x28  Code  Gb  basic.o [8]
emberAfBasicClusterServerAttributeChangedCallback
                        0x0001125d    0x136  Code  Gb  ikk-user.o [2]
emberAfBasicClusterServerCommandParse
                        0x00023a83     0x16  Code  Gb  call-command-handler.o [1]
emberAfClearReportTableCallback
                        0x0000cbb9     0x20  Code  Gb  reporting.o [39]
emberAfClearResponseData
                        0x0000da59     0x2a  Code  Gb  message.o [46]
emberAfClusterCount     0x000050df     0x4c  Code  Gb  attribute-storage.o [46]
emberAfClusterDefaultResponseWithMfgCodeCallback
                        0x00004ae1     0x2e  Code  Gb  attribute-storage.o [46]
emberAfClusterInitCallback
                        0x00005d97      0x2  Code  Gb  callback-stub.o [1]
emberAfClusterMessageSentWithMfgCodeCallback
                        0x00004b0f     0x5c  Code  Gb  attribute-storage.o [46]
emberAfClusterSecurityCustomCallback
                        0x00005d99      0x4  Code  Gb  callback-stub.o [1]
emberAfClusterSpecificCommandParse
                        0x000239e1     0xa2  Code  Gb  call-command-handler.o [1]
emberAfCompareValues    0x00006543     0xa2  Code  Gb  util.o [46]
emberAfConfigureReportingCommandCallback
                        0x0000c8ff    0x146  Code  Gb  reporting.o [39]
emberAfConfigureReportingResponseCallback
                        0x00005d9d      0x4  Code  Gb  callback-stub.o [1]
emberAfContainsClientWithMfgCode
                        0x00004fc3      0x8  Code  Gb  attribute-storage.o [46]
emberAfContainsClusterWithMfgCode
                        0x00004fb5      0x6  Code  Gb  attribute-storage.o [46]
emberAfContainsServer   0x00004fd7      0x8  Code  Gb  attribute-storage.o [46]
emberAfContainsServerWithMfgCode
                        0x00004fbb      0x8  Code  Gb  attribute-storage.o [46]
emberAfCopyLongString   0x00006503     0x40  Code  Gb  util.o [46]
emberAfCopyString       0x000064d3     0x30  Code  Gb  util.o [46]
emberAfDeactivateClientTick
                        0x000045eb      0x4  Code  Gb  af-event.o [46]
emberAfDeactivateClusterTick
                        0x000045d5     0x16  Code  Gb  af-event.o [46]
emberAfDeactivateServerTick
                        0x000045ef      0x4  Code  Gb  af-event.o [46]
emberAfDefaultResponseCallback
                        0x00005da1      0x4  Code  Gb  callback-stub.o [1]
emberAfDetermineIfLinkSecurityIsRequired
                        0x0000642d     0x46  Code  Gb  util.o [46]
emberAfDiscoverAttributesResponseCallback
                        0x00005da5      0x4  Code  Gb  callback-stub.o [1]
emberAfDiscoverCommandsGeneratedResponseCallback
                        0x00005da9      0x4  Code  Gb  callback-stub.o [1]
emberAfDiscoverCommandsReceivedResponseCallback
                        0x00005dad      0x4  Code  Gb  callback-stub.o [1]
emberAfEepromInitCallback
                        0x000349b5      0x4  Code  Gb  eeprom-afv2.o [13]
emberAfEndpointConfigure
                        0x00004a39     0x70  Code  Gb  attribute-storage.o [46]
emberAfEndpointCount    0x00004aa9      0x8  Code  Gb  attribute-storage.o [46]
emberAfEndpointFromIndex
                        0x000050d7      0x8  Code  Gb  attribute-storage.o [46]
emberAfEndpointIndexIsEnabled
                        0x00004ab1     0x10  Code  Gb  attribute-storage.o [46]
emberAfEndpointIsEnabled
                        0x000050b9     0x16  Code  Gb  attribute-storage.o [46]
emberAfEnergyScanResultCallback
                        0x00004743     0x12  Code  Gb  scan-dispatch.o [40]
emberAfEventControlSetDelayMS
                        0x0000451f     0x1c  Code  Gb  af-event.o [46]
emberAfEventControlSetDelayQS
                        0x0000453b     0x10  Code  Gb  af-event.o [46]
emberAfExternalAttributeReadCallback
                        0x00005db5      0x4  Code  Gb  callback-stub.o [1]
emberAfExternalAttributeWriteCallback
                        0x00005db9      0x4  Code  Gb  callback-stub.o [1]
emberAfExtractCommandIds
                        0x000055e5     0xa4  Code  Gb  attribute-storage.o [46]
emberAfFillExternalBuffer
                        0x0000c225     0x10  Code  Gb  client-api.o [46]
emberAfFillExternalManufacturerSpecificBuffer
                        0x0000c211     0x14  Code  Gb  client-api.o [46]
emberAfFindClusterFunction
                        0x000055ad     0x28  Code  Gb  attribute-storage.o [46]
emberAfFindClusterInTypeWithMfgCode
                        0x00004f51     0x64  Code  Gb  attribute-storage.o [46]
emberAfFindClusterIncludingDisabledEndpointsWithMfgCode
                        0x00005009     0x1e  Code  Gb  attribute-storage.o [46]
emberAfFindClusterServerEndpointIndex
                        0x0000502d      0x4  Code  Gb  attribute-storage.o [46]
emberAfFindClusterServerEndpointIndexWithMfgCode
                        0x00005027      0x6  Code  Gb  attribute-storage.o [46]
emberAfFindClusterWithMfgCode
                        0x00004fdf     0x22  Code  Gb  attribute-storage.o [46]
emberAfFindDevicesByProfileAndCluster
                        0x00024d81     0x5a  Code  Gb  service-discovery-common.o [46]
emberAfFindIeeeAddress  0x00024ddb     0x2c  Code  Gb  service-discovery-common.o [46]
emberAfFuncArrayBasicClusterServer
                        0x00038bac      0x4  Data  Gb  attribute-storage.o [46]
emberAfFuncArrayIasZoneClusterServer
                        0x00038bc0      0xc  Data  Gb  attribute-storage.o [46]
emberAfFuncArrayIdentifyClusterServer
                        0x00038bb0      0x8  Data  Gb  attribute-storage.o [46]
emberAfFuncArrayOtaBootloadClusterClient
                        0x00038bb8      0x8  Data  Gb  attribute-storage.o [46]
emberAfGetAddressIndex  0x000097e3     0x58  Code  Gb  af-main-soc.o [46]
emberAfGetAttributeAnalogOrDiscreteType
                        0x000065e5     0x16  Code  Gb  util.o [46]
emberAfGetBindingIndex  0x000097df      0x4  Code  Gb  af-main-soc.o [46]
emberAfGetBindingTableSize
                        0x00009b65      0x4  Code  Gb  af-main-soc.o [46]
emberAfGetChannelFrom8bitEncodedChanPg
                        0x000066c3      0x6  Code  Gb  util.o [46]
emberAfGetCommandApsFrame
                        0x0000c2a3      0x6  Code  Gb  client-api.o [46]
emberAfGetCurrentSleepControlCallback
                        0x00022c69     0x30  Code  Gb  idle-sleep.o [26]
emberAfGetCurrentTime   0x0000e2ed      0x4  Code  Gb  time-util.o [46]
emberAfGetCurrentTimeCallback
                        0x00005dbd      0x4  Code  Gb  callback-stub.o [1]
emberAfGetDataSize      0x00014c35     0x1c  Code  Gb  attribute-size.o [46]
emberAfGetDefaultSleepControlCallback
                        0x00022c99      0x6  Code  Gb  idle-sleep.o [26]
emberAfGetDifference    0x00005e81     0x5a  Code  Gb  util.o [46]
emberAfGetEndpointByIndexCallback
                        0x00005dc1      0x4  Code  Gb  callback-stub.o [1]
emberAfGetEndpointDescriptionCallback
                        0x00005dc5      0x4  Code  Gb  callback-stub.o [1]
emberAfGetEndpointInfoCallback
                        0x00005dc9      0x4  Code  Gb  callback-stub.o [1]
emberAfGetEui64         0x00009b59      0x8  Code  Gb  af-main-soc.o [46]
emberAfGetInt           0x0000db2d     0x32  Code  Gb  message.o [46]
emberAfGetInt16u        0x0000db63      0xc  Code  Gb  message.o [46]
emberAfGetInt32u        0x0000db5f      0x4  Code  Gb  message.o [46]
emberAfGetMfgCode       0x00004d25     0x16  Code  Gb  attribute-storage.o [46]
emberAfGetNodeId        0x000097d7      0x4  Code  Gb  af-main-soc.o [46]
emberAfGetNodeType      0x00009b61      0x4  Code  Gb  af-main-soc.o [46]
emberAfGetNthCluster    0x0000512b     0x52  Code  Gb  attribute-storage.o [46]
emberAfGetPageFrom8bitEncodedChanPg
                        0x00006697     0x2c  Code  Gb  util.o [46]
emberAfGetSourceRouteOverheadCallback
                        0x00005dcd      0x4  Code  Gb  callback-stub.o [1]
emberAfGroupsClusterClearGroupTableCallback
                        0x00005d93      0x2  Code  Gb  callback-stub.o [1]
emberAfGroupsClusterEndpointInGroupCallback
                        0x00005db1      0x4  Code  Gb  callback-stub.o [1]
emberAfIasZoneClusterAmIEnrolled
                        0x00025903     0x28  Code  Gb  ias-zone-server.o [24]
emberAfIasZoneClusterServerCommandParse
                        0x00023ad3     0x30  Code  Gb  call-command-handler.o [1]
emberAfIasZoneClusterServerInitCallback
                        0x00025a05     0x7e  Code  Gb  ias-zone-server.o [24]
emberAfIasZoneClusterServerMessageSentCallback
                        0x00025bbb      0x2  Code  Gb  ias-zone-server.o [24]
emberAfIasZoneClusterServerPreAttributeChangedCallback
                        0x000257e5     0xe0  Code  Gb  ias-zone-server.o [24]
emberAfIasZoneClusterServerTickCallback
                        0x00025a9b     0x1e  Code  Gb  ias-zone-server.o [24]
emberAfIasZoneClusterServerTickCallbackControl1
                        0x2000a53c      0x8  Data  Gb  af-event.o [46]
emberAfIasZoneClusterServerTickCallbackWrapperFunction1
                        0x000044b5      0x8  Code  Gb  af-event.o [46]
emberAfIasZoneClusterZoneEnrollResponseCallback
                        0x0002593d     0x3e  Code  Gb  ias-zone-server.o [24]
emberAfIdentifyClusterIdentifyCallback
                        0x00030ffd     0x14  Code  Gb  identify.o [25]
emberAfIdentifyClusterIdentifyQueryCallback
                        0x00031011     0x34  Code  Gb  identify.o [25]
emberAfIdentifyClusterServerAttributeChangedCallback
                        0x00030ff3      0xa  Code  Gb  identify.o [25]
emberAfIdentifyClusterServerCommandParse
                        0x00023a99     0x30  Code  Gb  call-command-handler.o [1]
emberAfIdentifyClusterServerInitCallback
                        0x00030fcd      0x2  Code  Gb  identify.o [25]
emberAfIdentifyClusterServerTickCallback
                        0x00030fcf     0x24  Code  Gb  identify.o [25]
emberAfIdentifyClusterServerTickCallbackControl1
                        0x2000a52c      0x8  Data  Gb  af-event.o [46]
emberAfIdentifyClusterServerTickCallbackWrapperFunction1
                        0x000044a5      0x8  Code  Gb  af-event.o [46]
emberAfIncomingZclSequenceNumber
                        0x20009eb3      0x1  Data  Gb  util.o [46]
emberAfIndexFromEndpoint
                        0x000050cf      0x4  Code  Gb  attribute-storage.o [46]
emberAfIndexFromEndpointIncludingDisabledEndpoints
                        0x000050d3      0x4  Code  Gb  attribute-storage.o [46]
emberAfInit             0x00005f3d     0x50  Code  Gb  util.o [46]
emberAfInitializeAttributes
                        0x0000517d      0x4  Code  Gb  attribute-storage.o [46]
emberAfInterpanSendMessageCallback
                        0x00005dd1      0x4  Code  Gb  callback-stub.o [1]
emberAfInvalidImageId   0x00038a74     0x10  Data  Gb  af-main-common.o [46]
emberAfIsDeviceEnabled  0x00005e69     0x18  Code  Gb  util.o [46]
emberAfIsLongStringAttributeType
                        0x00004ad1     0x10  Code  Gb  attribute-storage.o [46]
emberAfIsOtaImageIdValid
                        0x00030f85     0x12  Code  Gb  ota-storage-common.o [35]
emberAfIsStringAttributeType
                        0x00004ac1     0x10  Code  Gb  attribute-storage.o [46]
emberAfIsTypeSigned     0x0000668d      0xa  Code  Gb  util.o [46]
emberAfLocateAttributeMetadata
                        0x00004c5f     0x32  Code  Gb  attribute-storage.o [46]
emberAfLongStringLength
                        0x0000db81     0x16  Code  Gb  message.o [46]
emberAfMain             0x00009717     0xc0  Code  Gb  af-main-soc.o [46]
emberAfMainInit         0x000096a9     0x6e  Code  Gb  af-main-soc.o [46]
emberAfMainInitCallback
                        0x0000ec8d      0x2  Code  Gb  ikk-user.o [2]
emberAfMainStartCallback
                        0x00005dd5      0x4  Code  Gb  callback-stub.o [1]
emberAfMainTickCallback
                        0x00005dd9      0x2  Code  Gb  callback-stub.o [1]
emberAfMarkBuffersCallback
                        0x00005ddb      0x2  Code  Gb  callback-stub.o [1]
emberAfMaximumApsPayloadLength
                        0x00006479     0x5a  Code  Gb  util.o [46]
emberAfMessageSentCallback
                        0x00024941     0x32  Code  Gb  ikk-network.o [4]
emberAfNetworkEventControlSetActive
                        0x00004649      0x4  Code  Gb  multi-network.o [46]
emberAfNetworkEventControlSetDelayQS
                        0x0000464d      0x4  Code  Gb  multi-network.o [46]
emberAfNetworkEventControlSetInactive
                        0x00004643      0x6  Code  Gb  multi-network.o [46]
emberAfNetworkFoundCallback
                        0x00004755      0xe  Code  Gb  scan-dispatch.o [40]
emberAfNetworkIndexFromEndpoint
                        0x00004635      0xe  Code  Gb  multi-network.o [46]
emberAfNetworkState     0x000097db      0x4  Code  Gb  af-main-soc.o [46]
emberAfNextSequence     0x0000624d     0x10  Code  Gb  util.o [46]
emberAfOtaBootloadCallback
                        0x000349b9     0x18  Code  Gb  ota-bootload-soc.o [31]
emberAfOtaBootloadClusterClientDefaultResponseCallback
                        0x000231a9     0x1c  Code  Gb  ota-client.o [32]
emberAfOtaBootloadClusterClientInitCallback
                        0x00022ccd     0x2a  Code  Gb  ota-client.o [32]
emberAfOtaBootloadClusterClientTickCallback
                        0x00022df3      0x2  Code  Gb  ota-client.o [32]
emberAfOtaBootloadClusterClientTickCallbackControl1
                        0x2000a534      0x8  Data  Gb  af-event.o [46]
emberAfOtaBootloadClusterClientTickCallbackWrapperFunction1
                        0x000044ad      0x8  Code  Gb  af-event.o [46]
emberAfOtaClientBootloadCallback
                        0x000307c5     0x2a  Code  Gb  ota-client-policy.o [33]
emberAfOtaClientCustomVerifyCallback
                        0x00030779     0x3c  Code  Gb  ota-client-policy.o [33]
emberAfOtaClientDownloadCompleteCallback
                        0x000307b5     0x10  Code  Gb  ota-client-policy.o [33]
emberAfOtaClientIncomingMessageRawCallback
                        0x00023183     0x26  Code  Gb  ota-client.o [32]
emberAfOtaClientStartCallback
                        0x00022e4f     0x14  Code  Gb  ota-client.o [32]
emberAfOtaClientVersionInfoCallback
                        0x00030751     0x28  Code  Gb  ota-client-policy.o [33]
emberAfOtaStorageCheckTempDataCallback
                        0x0002842f     0x58  Code  Gb  ota-storage-simple.o [36]
emberAfOtaStorageClearTempDataCallback
                        0x0002840d      0xa  Code  Gb  ota-storage-simple.o [36]
emberAfOtaStorageDeleteImageCallback
                        0x00028487     0x1c  Code  Gb  ota-storage-simple.o [36]
emberAfOtaStorageDriverDownloadFinishCallback
                        0x00030dbb     0x10  Code  Gb  ota-storage-eeprom.o [37]
emberAfOtaStorageDriverInitCallback
                        0x00030c1b     0x24  Code  Gb  ota-storage-eeprom.o [37]
emberAfOtaStorageDriverInvalidateImageCallback
                        0x00030b05     0x2e  Code  Gb  ota-storage-eeprom-page-erase.o [37]
emberAfOtaStorageDriverMaxDownloadSizeCallback
                        0x00030dcb      0x6  Code  Gb  ota-storage-eeprom.o [37]
emberAfOtaStorageDriverPrepareToResumeDownloadCallback
                        0x00030b63     0x36  Code  Gb  ota-storage-eeprom-page-erase.o [37]
emberAfOtaStorageDriverReadCallback
                        0x00030d67     0x12  Code  Gb  ota-storage-eeprom.o [37]
emberAfOtaStorageDriverRetrieveLastStoredOffsetCallback
                        0x00030b33     0x30  Code  Gb  ota-storage-eeprom-page-erase.o [37]
emberAfOtaStorageDriverWriteCallback
                        0x00030d79     0x42  Code  Gb  ota-storage-eeprom.o [37]
emberAfOtaStorageFinishDownloadCallback
                        0x00028403      0xa  Code  Gb  ota-storage-simple.o [36]
emberAfOtaStorageGetFullHeaderCallback
                        0x0002824f     0x2a  Code  Gb  ota-storage-simple.o [36]
emberAfOtaStorageInitCallback
                        0x000281cd     0x30  Code  Gb  ota-storage-simple.o [36]
emberAfOtaStorageReadImageDataCallback
                        0x000283cd     0x36  Code  Gb  ota-storage-simple.o [36]
emberAfOtaStorageSearchCallback
                        0x000281fd     0x52  Code  Gb  ota-storage-simple.o [36]
emberAfOtaStorageWriteTempDataCallback
                        0x00028417     0x18  Code  Gb  ota-storage-simple.o [36]
emberAfPartnerLinkKeyExchangeRequestCallback
                        0x00005ddd      0x4  Code  Gb  callback-stub.o [1]
emberAfPartnerLinkKeyExchangeResponseCallback
                        0x00005de1      0x2  Code  Gb  callback-stub.o [1]
emberAfPermitJoin       0x0000dfed      0x6  Code  Gb  af-main-common.o [46]
emberAfPluginBasicResetToFactoryDefaultsCallback
                        0x00005de3      0x2  Code  Gb  callback-stub.o [1]
emberAfPluginCountersClear
                        0x0000d23b      0x8  Code  Gb  counters-soc.o [11]
emberAfPluginCountersInitCallback
                        0x0000d10d      0xc  Code  Gb  counters-soc.o [11]
emberAfPluginCountersResetThresholds
                        0x0000d243      0xa  Code  Gb  counters-soc.o [11]
emberAfPluginCountersRolloverCallback
                        0x00005de5      0x2  Code  Gb  callback-stub.o [1]
emberAfPluginEepromBusy
                        0x0000c61f      0xe  Code  Gb  eeprom.o [13]
emberAfPluginEepromErase
                        0x0000c5b1     0x4c  Code  Gb  eeprom.o [13]
emberAfPluginEepromFlushSavedPartialWrites
                        0x0000c541     0x4a  Code  Gb  eeprom.o [13]
emberAfPluginEepromGetWordSize
                        0x0000c301     0x26  Code  Gb  eeprom.o [13]
emberAfPluginEepromInfo
                        0x0000c399      0xe  Code  Gb  eeprom.o [13]
emberAfPluginEepromInit
                        0x0000c33d     0x5c  Code  Gb  eeprom.o [13]
emberAfPluginEepromInitCallback
                        0x0000c2d9      0x2  Code  Gb  eeprom.o [13]
emberAfPluginEepromNoteInitializedState
                        0x0000c327     0x16  Code  Gb  eeprom.o [13]
emberAfPluginEepromRead
                        0x0000c58b     0x26  Code  Gb  eeprom.o [13]
emberAfPluginEepromStateChangeCallback
                        0x00005de7      0x2  Code  Gb  callback-stub.o [1]
emberAfPluginEepromWrite
                        0x0000c3b7    0x18a  Code  Gb  eeprom.o [13]
emberAfPluginFormAndJoinCleanupEventControl
                        0x2000b660      0x8  Data  Gb  form-and-join-afv2.o [19]
emberAfPluginFormAndJoinCleanupEventHandler
                        0x00011575      0x6  Code  Gb  form-and-join-afv2.o [19]
emberAfPluginFormAndJoinMarker
                        0x0001157b      0x4  Code  Gb  form-and-join-afv2.o [19]
emberAfPluginFormAndJoinNetworkFoundCallback
                        0x00005de9      0x2  Code  Gb  callback-stub.o [1]
emberAfPluginHeartbeatTickCallback
                        0x00011551     0x20  Code  Gb  heartbeat.o [23]
emberAfPluginHeartbeatTickCallback::lastMs
                        0x2000b5d8      0x4  Data  Lc  heartbeat.o [23]
emberAfPluginIasZoneClusterSetEnrollmentMethod
                        0x000258c5     0x2c  Code  Gb  ias-zone-server.o [24]
emberAfPluginIasZoneServerGetZoneId
                        0x00025ac3     0x20  Code  Gb  ias-zone-server.o [24]
emberAfPluginIasZoneServerManageQueueEventControl
                        0x2000b5d0      0x8  Data  Gb  ias-zone-server.o [24]
emberAfPluginIasZoneServerManageQueueEventHandler
                        0x000259fd      0x8  Code  Gb  ias-zone-server.o [24]
emberAfPluginIasZoneServerStackStatusCallback
                        0x00025b05     0x8e  Code  Gb  ias-zone-server.o [24]
emberAfPluginIasZoneServerUpdateZoneStatus
                        0x0002597b     0x76  Code  Gb  ias-zone-server.o [24]
emberAfPluginIdentifyStartFeedbackCallback
                        0x00005deb      0x2  Code  Gb  callback-stub.o [1]
emberAfPluginIdentifyStopFeedbackCallback
                        0x00005ded      0x2  Code  Gb  callback-stub.o [1]
emberAfPluginIdleSleepActiveCallback
                        0x00005def      0x2  Code  Gb  callback-stub.o [1]
emberAfPluginIdleSleepInitCallback
                        0x0000d109      0x2  Code  Gb  idle-sleep-soc.o [26]
emberAfPluginIdleSleepOkToIdleCallback
                        0x00005df1      0x4  Code  Gb  callback-stub.o [1]
emberAfPluginIdleSleepTickCallback
                        0x0000d0cd     0x36  Code  Gb  idle-sleep-soc.o [26]
emberAfPluginNetworkSteeringCompleteCallback
                        0x00024457     0x2e  Code  Gb  ikk-network.o [4]
emberAfPluginNetworkSteeringFinishSteeringEventControl
                        0x2000b5c4      0x8  Data  Gb  network-steering.o [28]
emberAfPluginNetworkSteeringFinishSteeringEventHandler
                        0x00025657     0x50  Code  Gb  network-steering.o [28]
emberAfPluginNetworkSteeringGetDistributedKeyCallback
                        0x00005df5      0x4  Code  Gb  callback-stub.o [1]
emberAfPluginNetworkSteeringGetNodeTypeCallback
                        0x00005df9      0xe  Code  Gb  callback-stub.o [1]
emberAfPluginNetworkSteeringMarker
                        0x000115d3      0x6  Code  Gb  network-steering-soc.o [28]
emberAfPluginNetworkSteeringStackStatusCallback
                        0x00025303     0xa6  Code  Gb  network-steering.o [28]
emberAfPluginNetworkSteeringStart
                        0x000255ef     0x4c  Code  Gb  network-steering.o [28]
emberAfPluginNetworkSteeringStop
                        0x0002563b     0x16  Code  Gb  network-steering.o [28]
emberAfPluginOtaClientPreBootloadCallback
                        0x00005e0d      0x2  Code  Gb  callback-stub.o [1]
emberAfPluginOtaClientStackStatusCallback
                        0x00022d4d      0x2  Code  Gb  ota-client.o [32]
emberAfPluginOtaStorageSimpleEepromEraseCompleteCallback
                        0x00022dd9     0x1a  Code  Gb  ota-client.o [32]
emberAfPluginOtaStorageSimpleEepromPageEraseEventControl
                        0x2000ae68      0x8  Data  Gb  ota-storage-eeprom.o [37]
emberAfPluginOtaStorageSimpleEepromPageEraseEventHandler
                        0x00030a3b      0xc  Code  Gb  ota-storage-eeprom-page-erase.o [37]
emberAfPluginReportingConfigureReportedAttribute
                        0x0000ce7d    0x14a  Code  Gb  reporting.o [39]
emberAfPluginReportingConfiguredCallback
                        0x00005e0f      0x4  Code  Gb  callback-stub.o [1]
emberAfPluginReportingGetDefaultReportingConfigCallback
                        0x00005e13     0x16  Code  Gb  callback-stub.o [1]
emberAfPluginReportingGetReportingConfigDefaults
                        0x00022b8b     0x5c  Code  Gb  reporting-default-configuration.o [39]
emberAfPluginReportingInitCallback
                        0x0000c69b     0x42  Code  Gb  reporting.o [39]
emberAfPluginReportingLoadReportingConfigDefaults
                        0x00022ae9      0x2  Code  Gb  reporting-default-configuration.o [39]
emberAfPluginReportingStackStatusCallback
                        0x0000c689     0x12  Code  Gb  reporting.o [39]
emberAfPluginReportingTickEventControl
                        0x2000ae58      0x8  Data  Gb  reporting.o [39]
emberAfPluginReportingTickEventHandler
                        0x0000c6e5    0x1f2  Code  Gb  reporting.o [39]
emberAfPluginScanDispatchScanNetworkEventControls
                        0x2000a544      0x8  Data  Gb  af-event.o [46]
emberAfPluginScanDispatchScanNetworkEventHandler
                        0x000046e5     0x5e  Code  Gb  scan-dispatch.o [40]
emberAfPluginScanDispatchScanNetworkEventWrapper0
                        0x0000446d     0x1a  Code  Gb  af-event.o [46]
emberAfPluginScanDispatchScheduleScan
                        0x000046af     0x36  Code  Gb  scan-dispatch.o [40]
emberAfPluginUpdateTcLinkKeyBeginTcLinkKeyUpdateEventControl
                        0x2000aae0      0x8  Data  Gb  update-tc-link-key.o [45]
emberAfPluginUpdateTcLinkKeyBeginTcLinkKeyUpdateEventHandler
                        0x00011c41     0x3a  Code  Gb  update-tc-link-key.o [45]
emberAfPluginUpdateTcLinkKeySetDelay
                        0x00011bcb      0x8  Code  Gb  update-tc-link-key.o [45]
emberAfPluginUpdateTcLinkKeySetInactive
                        0x00011bd3      0x8  Code  Gb  update-tc-link-key.o [45]
emberAfPluginUpdateTcLinkKeyStart
                        0x00011bad     0x14  Code  Gb  update-tc-link-key.o [45]
emberAfPluginUpdateTcLinkKeyStatusCallback
                        0x000256b1     0x5a  Code  Gb  network-steering.o [28]
emberAfPluginUpdateTcLinkKeyStop
                        0x00011bc1      0xa  Code  Gb  update-tc-link-key.o [45]
emberAfPluginUpdateTcLinkKeyZigbeeKeyEstablishmentCallback
                        0x00011bdb     0x66  Code  Gb  update-tc-link-key.o [45]
emberAfPluginZigBeeEventLoggerAddChildTimedOut
                        0x00005d79      0x2  Code  Gb  ember-configuration.o [1]
emberAfPluginZigBeeEventLoggerAddLeaveWithRejoin
                        0x00005d75      0x2  Code  Gb  ember-configuration.o [1]
emberAfPluginZigBeeEventLoggerAddLeaveWithoutRejoin
                        0x00005d73      0x2  Code  Gb  ember-configuration.o [1]
emberAfPluginZigBeeEventLoggerAddParentChange
                        0x00005d77      0x2  Code  Gb  ember-configuration.o [1]
emberAfPluginZigBeeEventLoggerAddSecureRejoin
                        0x00005d71      0x2  Code  Gb  ember-configuration.o [1]
emberAfPluginZigBeeEventLoggerAddTrustCenterJoinDecision
                        0x00005d7b      0x2  Code  Gb  ember-configuration.o [1]
emberAfPluginZigBeeEventLoggerAddTrustCenterRejoin
                        0x00005d6f      0x2  Code  Gb  ember-configuration.o [1]
emberAfPopNetworkIndex  0x0000461b      0x4  Code  Gb  multi-network.o [46]
emberAfPostAttributeChangeCallback
                        0x00005e29      0x2  Code  Gb  callback-stub.o [1]
emberAfPreAttributeChangeCallback
                        0x00005e2b      0x4  Code  Gb  callback-stub.o [1]
emberAfPreCommandReceivedCallback
                        0x00011651    0x15e  Code  Gb  ikk-cluster.o [4]
emberAfPreMessageReceivedCallback
                        0x00024cd5     0x8c  Code  Gb  diagnostic-server-soc.o [12]
emberAfPreMessageSendCallback
                        0x000109cf     0x30  Code  Gb  ikk-user.o [2]
emberAfPreMessageSendCallback::u8MsgSendCounter
                        0x2000ffc7      0x1  Data  Lc  ikk-user.o [2]
emberAfPreZDOMessageReceivedCallback
                        0x000118bd     0x88  Code  Gb  ikk-cluster.o [4]
emberAfPrimaryEndpointForCurrentNetworkIndex
                        0x00004621      0x2  Code  Gb  multi-network.o [46]
emberAfPrint            0x0000d513      0xa  Code  Gb  print.o [46]
emberAfPrintActiveArea  0x2000fb5e      0x2  Data  Gb  print.o [46]
emberAfPrintBuffer      0x0000e31f      0xa  Code  Gb  print-formatter.o [46]
emberAfPrintEnabled     0x0000d4c1     0x1c  Code  Gb  print.o [46]
emberAfPrintln          0x0000d507      0xc  Code  Gb  print.o [46]
emberAfProcessMessage   0x0000611b    0x132  Code  Gb  util.o [46]
emberAfProcessMessageIntoZclCmd
                        0x00006097     0x84  Code  Gb  util.o [46]
emberAfPushCallbackNetworkIndex
                        0x00004605      0x4  Code  Gb  multi-network.o [46]
emberAfPushEndpointNetworkIndex
                        0x00004609     0x12  Code  Gb  multi-network.o [46]
emberAfPushNetworkIndex
                        0x000045ff      0x6  Code  Gb  multi-network.o [46]
emberAfPutBlockInResp   0x0000db03     0x2a  Code  Gb  message.o [46]
emberAfPutInt16uInResp  0x0000daa1     0x1e  Code  Gb  message.o [46]
emberAfPutInt32uInResp  0x0000dabf     0x2e  Code  Gb  message.o [46]
emberAfPutInt8uInResp   0x0000da83     0x1e  Code  Gb  message.o [46]
emberAfReadAttribute    0x00006eb7     0x14  Code  Gb  attribute-table.o [46]
emberAfReadAttributesResponseCallback
                        0x00005e2f      0x4  Code  Gb  callback-stub.o [1]
emberAfReadReportingConfigurationCommandCallback
                        0x0000ca53    0x150  Code  Gb  reporting.o [39]
emberAfReadReportingConfigurationResponseCallback
                        0x00005e33      0x4  Code  Gb  callback-stub.o [1]
emberAfReadSequentialAttributesAddToResponse
                        0x00006eed     0xda  Code  Gb  attribute-table.o [46]
emberAfReadServerAttribute
                        0x00006ecb      0x8  Code  Gb  attribute-table.o [46]
emberAfRegistrationAbortCallback
                        0x00005e37      0x2  Code  Gb  callback-stub.o [1]
emberAfRegistrationStartCallback
                        0x00005e39      0x4  Code  Gb  callback-stub.o [1]
emberAfRemoteDeleteBindingPermissionCallback
                        0x00005e3d      0x4  Code  Gb  callback-stub.o [1]
emberAfRemoteSetBindingPermissionCallback
                        0x00005e41      0x4  Code  Gb  callback-stub.o [1]
emberAfRemoveFromCurrentAppTasksCallback
                        0x00005e45      0x2  Code  Gb  callback-stub.o [1]
emberAfReportAttributesCallback
                        0x00005e47      0x4  Code  Gb  callback-stub.o [1]
emberAfReportingAttributeChangeCallback
                        0x0000cbd9    0x102  Code  Gb  reporting.o [39]
emberAfResetAttributes  0x00005181     0x14  Code  Gb  attribute-storage.o [46]
emberAfResponseApsFrame
                        0x2000a980      0xc  Data  Gb  message.o [46]
emberAfResponseDestination
                        0x2000f976      0x2  Data  Gb  message.o [46]
emberAfResponseType     0x2000ff4d      0x1  Data  Gb  util.o [46]
emberAfRetrieveAttributeAndCraftResponse
                        0x00006fc7     0x7e  Code  Gb  attribute-table.o [46]
emberAfRunEvents        0x000044d1     0x18  Code  Gb  af-event.o [46]
emberAfScanCompleteCallback
                        0x0000476b     0x4c  Code  Gb  scan-dispatch.o [40]
emberAfScanErrorCallback
                        0x00005e4b      0x2  Code  Gb  callback-stub.o [1]
emberAfScenesClusterClearSceneTableCallback
                        0x00005d95      0x2  Code  Gb  callback-stub.o [1]
emberAfScheduleClientTickExtended
                        0x0000457b      0xe  Code  Gb  af-event.o [46]
emberAfScheduleServerTick
                        0x0000459b      0xc  Code  Gb  af-event.o [46]
emberAfScheduleServerTickExtended
                        0x00004589      0xc  Code  Gb  af-event.o [46]
emberAfScheduleTickExtended
                        0x0000454b     0x30  Code  Gb  af-event.o [46]
emberAfSendBroadcastWithCallback
                        0x0000ddfd      0xc  Code  Gb  af-main-common.o [46]
emberAfSendCommandMulticastToBindings
                        0x0000c271     0x12  Code  Gb  client-api.o [46]
emberAfSendCommandUnicast
                        0x0000c29f      0x4  Code  Gb  client-api.o [46]
emberAfSendCommandUnicastToBindings
                        0x0000c26d      0x4  Code  Gb  client-api.o [46]
emberAfSendCommandUnicastToBindingsWithCallback
                        0x0000c259     0x14  Code  Gb  client-api.o [46]
emberAfSendCommandUnicastWithCallback
                        0x0000c283     0x1c  Code  Gb  client-api.o [46]
emberAfSendDefaultResponse
                        0x00006429      0x4  Code  Gb  util.o [46]
emberAfSendDefaultResponseWithCallback
                        0x000063ad     0x7c  Code  Gb  util.o [46]
emberAfSendImmediateDefaultResponse
                        0x000063a9      0x4  Code  Gb  util.o [46]
emberAfSendImmediateDefaultResponseWithCallback
                        0x0000639f      0xa  Code  Gb  util.o [46]
emberAfSendMulticast    0x0000dd7d      0xe  Code  Gb  af-main-common.o [46]
emberAfSendMulticastToBindings
                        0x0000dd8b     0x72  Code  Gb  af-main-common.o [46]
emberAfSendMulticastWithCallback
                        0x0000dd69      0xc  Code  Gb  af-main-common.o [46]
emberAfSendResponse     0x0000639b      0x4  Code  Gb  util.o [46]
emberAfSendResponseWithCallback
                        0x000062a9     0xf2  Code  Gb  util.o [46]
emberAfSendUnicast      0x0000de63     0x10  Code  Gb  af-main-common.o [46]
emberAfSendUnicastToBindingsWithCallback
                        0x0000de73    0x144  Code  Gb  af-main-common.o [46]
emberAfSendUnicastWithCallback
                        0x0000de21     0x42  Code  Gb  af-main-common.o [46]
emberAfSequenceNumber   0x20009eb4      0x1  Data  Gb  util.o [46]
emberAfSetCommandEndpoints
                        0x0000c2a9      0xc  Code  Gb  client-api.o [46]
emberAfSetDefaultSleepControlCallback
                        0x00022c9f      0x6  Code  Gb  idle-sleep.o [26]
emberAfSetExternalBuffer
                        0x0000c1fd     0x14  Code  Gb  client-api.o [46]
emberAfSetShortPollIntervalMsCallback
                        0x00005e4d      0x2  Code  Gb  callback-stub.o [1]
emberAfSetTime          0x0000e2e9      0x4  Code  Gb  time-util.o [46]
emberAfSetTimeCallback  0x00005e4f      0x2  Code  Gb  callback-stub.o [1]
emberAfStackDown        0x00005f8f     0x1e  Code  Gb  util.o [46]
emberAfStackStatusCallback
                        0x00024493     0xca  Code  Gb  ikk-network.o [4]
emberAfStartMoveCallback
                        0x00005e51      0x4  Code  Gb  callback-stub.o [1]
emberAfStringLength     0x0000db77      0xa  Code  Gb  message.o [46]
emberAfTick             0x00005f8d      0x2  Code  Gb  util.o [46]
emberAfTrustCenterJoinCallback
                        0x00005e55      0x2  Code  Gb  callback-stub.o [1]
emberAfTrustCenterKeepaliveAbortCallback
                        0x00005e57      0x2  Code  Gb  callback-stub.o [1]
emberAfUnusedPanIdFoundCallback
                        0x00005e59      0x2  Code  Gb  callback-stub.o [1]
emberAfVerifyAttributeWrite
                        0x00006e9d     0x1a  Code  Gb  attribute-table.o [46]
emberAfWriteAttribute   0x00006e51      0xe  Code  Gb  attribute-table.o [46]
emberAfWriteAttributeExternal
                        0x00006e01     0x50  Code  Gb  attribute-table.o [46]
emberAfWriteAttributesResponseCallback
                        0x00005e5b      0x4  Code  Gb  callback-stub.o [1]
emberAfWriteServerAttribute
                        0x00006e5f      0xe  Code  Gb  attribute-table.o [46]
emberAfZigbeeKeyEstablishmentCallback
                        0x00005e5f      0x2  Code  Gb  callback-stub.o [1]
emberAppLinkKeyRequestPolicies
                        0x2000ffd0      0x1  Data  Gb  ember-configuration.o [1]
emberApsAckTimeoutMs    0x20009e8c      0x2  Data  Gb  ember-configuration.o [1]
emberAssumedTrustCenterConcentratorType
                        0x20009ed8      0x1  Data  Gb  ember-configuration.o [1]
emberBindingIsActive    0x00026589      0x4  Code  Gb  aps-retry.o [73]
emberBindingTableSize   0x20009ed4      0x1  Data  Gb  ember-configuration.o [1]
emberBootloadTransmitCompleteHandler
                        0x00005d49      0x2  Code  Gb  ember-configuration.o [1]
emberCcmAuthDecrypt     0x00031dc1     0x40  Code  Gb  ccm-star.o [9]
emberCcmAuthDecryptPacket
                        0x00031e01     0x34  Code  Gb  ccm-star.o [9]
emberCcmCalculateAndEncryptMic
                        0x00031ca1     0xaa  Code  Gb  ccm-star.o [9]
emberCcmEncryptAndTag   0x00031d99     0x28  Code  Gb  ccm-star.o [9]
emberCcmEncryptBytes    0x00031d4b     0x4e  Code  Gb  ccm-star.o [9]
emberChildCount         0x0000d2cb     0x14  Code  Gb  ember-stack-common.o [73]
emberChildJoinHandler   0x00005d43      0x2  Code  Gb  ember-configuration.o [1]
emberChildTableSize     0x20009eca      0x1  Data  Gb  ember-configuration.o [1]
emberChildTimeoutOptionsMask
                        0x20009ea4      0x2  Data  Lc  child-handling.o [73]
emberClearBindingTable  0x0000ebcd     0x34  Code  Gb  binding-table.o [48]
emberClearStoredBeacons
                        0x0000a0bd      0xe  Code  Gb  beacon-handling.o [73]
emberClearTransientLinkKeys
                        0x0002de7f     0x3c  Code  Gb  aps-keys-transient.o [73]
emberCommandActionHandler
                        0x0002f359     0x16  Code  Gb  core-cli.o [46]
emberCommandErrorHandler
                        0x0001fa87     0x70  Code  Gb  command-interpreter2.o [1]
emberCommandErrorNames  0x20009a74     0x20  Data  Gb  command-interpreter2.o [1]
emberCommandInterpreter2Configuration
                        0x2000ffcb      0x1  Data  Gb  command-interpreter2.o [1]
emberCommandReaderInit  0x0001f4ed      0x2  Code  Gb  command-interpreter2.o [1]
emberCommandTable       0x0003e130     0x14  Data  Gb  znet-cli.o [1]
emberConcentratorNoteDeliveryFailure
                        0x00020c27      0x2  Code  Gb  source-route-stub.o [72]
emberConcentratorNoteRouteError
                        0x00020c25      0x2  Code  Gb  source-route-stub.o [72]
emberCopyBufferBytes    0x000208f5     0x26  Code  Gb  legacy-packet-buffer.o [73]
emberCopyLinkedBuffers  0x000208d9     0x1c  Code  Gb  legacy-packet-buffer.o [73]
emberCounterHandler     0x0000d119    0x122  Code  Gb  counters-soc.o [11]
emberCounterRequiresDestinationNodeId
                        0x0000d289     0x20  Code  Gb  ember-stack-common.o [73]
emberCounterRequiresPhyIndex
                        0x0000d269     0x20  Code  Gb  ember-stack-common.o [73]
emberCounters           0x2000bb50     0x54  Data  Gb  counters-soc.o [11]
emberCountersThresholds
                        0x2000bba4     0x54  Data  Gb  counters-soc.o [11]
emberCurrentCommand     0x2000f6b8      0x4  Data  Gb  command-interpreter2.o [1]
emberCurrentStackTasks  0x0001855b     0x90  Code  Gb  zigbee-stack.o [73]
emberDebugAssert        0x0000beeb      0x2  Code  Gb  debug-stub.o [55]
emberDeleteBinding      0x0000e97f     0x5a  Code  Gb  binding-table.o [48]
emberEmbernetPassthroughSourceAddress
                        0x20009eae      0x2  Data  Gb  zigbee-mac-header.o [73]
emberEndDevicePollTimeout
                        0x20009ede      0x1  Data  Gb  ember-configuration.o [1]
emberEndDevicekeepAliveSupportMode
                        0x20009edd      0x1  Data  Gb  ember-configuration.o [1]
emberEndpointCount      0x2000ff43      0x1  Data  Gb  attribute-storage.o [46]
emberEnergyScanResultHandler
                        0x00009bf1     0x18  Code  Gb  af-main-soc.o [46]
emberFetchLowHighInt16u
                        0x0001a7b5      0xc  Code  Wk  mac-header.o [73]
emberFindAndRejoinNetwork
                        0x00008627      0x4  Code  Gb  association.o [73]
emberFindAndRejoinNetworkWithReason
                        0x0000862d     0xaa  Code  Gb  association.o [73]
emberFindKeyTableEntry  0x0002e3ef      0x4  Code  Gb  aps-keys-full-stub.o [70]
emberFormAndJoinCleanup
                        0x00020f15     0x1c  Code  Gb  form-and-join.o [19]
emberFormAndJoinEnergyScanResultHandler
                        0x00020e69     0x40  Code  Gb  form-and-join.o [19]
emberFormAndJoinIsScanning
                        0x00020f05     0x10  Code  Gb  form-and-join.o [19]
emberFormAndJoinNetworkFoundHandler
                        0x00020e03     0x66  Code  Gb  form-and-join.o [19]
emberFormAndJoinScanCompleteHandler
                        0x00020d97     0x6c  Code  Gb  form-and-join.o [19]
emberFragmentWindowSize
                        0x20009ed7      0x1  Data  Gb  ember-configuration.o [1]
emberGenerateRandomKey  0x0000d409      0x6  Code  Gb  ember-stack-common.o [73]
emberGetAddressTableRemoteEui64
                        0x0000e43d     0x30  Code  Gb  address-table.o [73]
emberGetAddressTableRemoteNodeId
                        0x0000e46d     0x1c  Code  Gb  address-table.o [73]
emberGetBinding         0x0000e8cd     0x18  Code  Gb  binding-table.o [48]
emberGetBindingIndex    0x0002050b     0x10  Code  Gb  application-support.o [73]
emberGetBindingRemoteNodeId
                        0x0000e8c1      0xc  Code  Gb  binding-table.o [48]
emberGetCallbackNetwork
                        0x00006917      0x4  Code  Gb  ember-multi-network-stub.o [66]
emberGetChildData       0x0001a199     0x78  Code  Gb  child.o [73]
emberGetCurrentNetwork  0x00006913      0x4  Code  Gb  ember-multi-network-stub.o [66]
emberGetCurrentSecurityState
                        0x00018e23     0x56  Code  Gb  aps-security.o [73]
emberGetEndpoint        0x000098d1     0x3c  Code  Gb  af-main-soc.o [46]
emberGetEndpointCluster
                        0x0000995d     0x48  Code  Gb  af-main-soc.o [46]
emberGetEndpointDescription
                        0x0000990d     0x50  Code  Gb  af-main-soc.o [46]
emberGetExtendedPanId   0x000094c9     0x16  Code  Gb  association.o [73]
emberGetExtendedSecurityBitmask
                        0x00018dff     0x24  Code  Gb  aps-security.o [73]
emberGetExtendedTimeout
                        0x0000e655     0x3a  Code  Gb  address-table.o [73]
emberGetFirstBeacon     0x0000a0d3     0x2c  Code  Gb  beacon-handling.o [73]
emberGetKey             0x0001e2a5     0xe4  Code  Gb  aps-keys.o [73]
emberGetLastAppZigDevRequestSequence
                        0x00031579      0xa  Code  Gb  zigbee-device-common.o [1]
emberGetLastHopLqi      0x0002078b      0x4  Code  Gb  zigbee-dispatch.o [73]
emberGetLastHopRssi     0x0002078f      0x2  Code  Gb  zigbee-dispatch.o [73]
emberGetLastStackZigDevRequestSequence
                        0x000178f1      0xa  Code  Gb  zigbee-device-util.o [73]
emberGetLibraryStatus   0x0002d6f1     0x40  Code  Gb  ember-library.o [73]
emberGetLinkedBuffersByte
                        0x00020889     0x26  Code  Gb  legacy-packet-buffer.o [73]
emberGetLinkedBuffersLowHighInt16u
                        0x0002091b     0x10  Code  Gb  legacy-packet-buffer.o [73]
emberGetLinkedBuffersPointer
                        0x0002086b     0x1e  Code  Gb  legacy-packet-buffer.o [73]
emberGetMfgSecurityConfig
                        0x0002ec4d     0x3e  Code  Gb  security-config-mfg.o [73]
emberGetNodeId          0x0001870b     0x18  Code  Gb  zigbee-stack.o [73]
emberGetNodeType        0x00009499     0x30  Code  Gb  association.o [73]
emberGetNumStoredBeacons
                        0x0000a10d      0x8  Code  Gb  beacon-handling.o [73]
emberGetPanId           0x00018743     0x18  Code  Gb  zigbee-stack.o [73]
emberGetParentEui64     0x0000d2bb     0x10  Code  Gb  ember-stack-common.o [73]
emberGetParentNodeId    0x0000d2a9     0x12  Code  Gb  ember-stack-common.o [73]
emberGetRadioChannel    0x0000d48d     0x14  Code  Gb  ember-stack-common.o [73]
emberGetRejoinMode      0x00019bc1      0x6  Code  Gb  aps-security.o [73]
emberGetRoutingShortcutThreshold
                        0x0001c117      0x6  Code  Gb  neighbor.o [73]
emberGetSender          0x00020799     0x10  Code  Gb  zigbee-dispatch.o [73]
emberGetSenderEui64     0x000207a9     0x1e  Code  Gb  zigbee-dispatch.o [73]
emberGetStrongRandomNumberArray
                        0x00022cbd     0x10  Code  Gb  strong-random-api.o [44]
emberGetTransientKeyTableEntry
                        0x0002df6b     0x4c  Code  Gb  aps-keys-transient.o [73]
emberGetZllPrimaryChannelMask
                        0x00007a45      0x4  Code  Gb  zll-stubs.o [75]
emberGetZllSecondaryChannelMask
                        0x00007a49      0x4  Code  Gb  zll-stubs.o [75]
emberHaveLinkKey        0x0001e705     0x14  Code  Gb  aps-keys.o [73]
emberHmacAesHash        0x0002e389     0x62  Code  Gb  hmac.o [73]
emberIdConflictHandler  0x00005d63      0x2  Code  Gb  ember-configuration.o [1]
emberIeeeAddressRequest
                        0x0001752b      0xc  Code  Gb  zigbee-device-util.o [73]
emberIncomingBootloadMessageHandler
                        0x00005d47      0x2  Code  Gb  ember-configuration.o [1]
emberIncomingManyToOneRouteRequestHandler
                        0x00005d51      0x2  Code  Gb  ember-configuration.o [1]
emberIncomingMessageHandler
                        0x000099f7     0x48  Code  Gb  af-main-soc.o [46]
emberIncomingNetworkStatusHandler
                        0x00005d53      0x2  Code  Gb  ember-configuration.o [1]
emberInit               0x00018361     0xb8  Code  Gb  zigbee-stack.o [73]
emberIsResetRejoiningNeighborsFCEnabled
                        0x0001c11d      0x6  Code  Gb  neighbor.o [73]
emberJoinNetwork        0x000081dd     0x5a  Code  Gb  association.o [73]
emberJoinableNetworkFoundHandler
                        0x00011571      0x4  Code  Gb  form-and-join-afv2.o [19]
emberLeaveNetwork       0x00017f15     0x18  Code  Gb  leave.o [73]
emberLinkPowerDeltaInterval
                        0x20009e92      0x2  Data  Gb  ember-configuration.o [1]
emberLookupEui64ByNodeId
                        0x0001862d     0xde  Code  Gb  zigbee-stack.o [73]
emberLookupNodeIdByEui64
                        0x000185ed     0x40  Code  Gb  zigbee-stack.o [73]
emberMacCounters        0x2000bc1c     0x84  Data  Gb  counters-soc.o [11]
emberMacFilterMatchMessageHandler
                        0x00005d4b      0x2  Code  Gb  ember-configuration.o [1]
emberMacIndirectTimeout
                        0x20009e90      0x2  Data  Gb  ember-configuration.o [1]
emberMacPassthroughFilterHandler
                        0x00005d65      0x4  Code  Gb  ember-configuration.o [1]
emberMacPassthroughFlags
                        0x2000ffeb      0x1  Data  Gb  zigbee-mac-header.o [73]
emberMarkApplicationBuffers
                        0x00009c1d      0x4  Code  Gb  af-main-soc.o [46]
emberMarkTaskIdle       0x00004969     0x82  Code  Gb  event-control.o [73]
emberMatchDescriptorsRequest
                        0x00024b49    0x106  Code  Gb  zigbee-device-library.o [1]
emberMaximumApsPayloadLength
                        0x000204a7     0x1a  Code  Gb  application-support.o [73]
emberMessageSentHandler
                        0x00009a69     0x50  Code  Gb  af-main-soc.o [46]
emberMsToNextEventExtended
                        0x00004873     0x4c  Code  Gb  event-control.o [73]
emberMultiNetworkCounters
                        0x2000bbf8     0x24  Data  Gb  counters-soc.o [11]
emberMultiPhyStop       0x0001a7ad      0x4  Code  Gb  ember-multi-phy-stub.o [73]
emberMulticastTable     0x20009abc      0x4  Data  Gb  ember-configuration.o [1]
emberMulticastTableSize
                        0x20009ece      0x1  Data  Gb  ember-configuration.o [1]
emberNetworkFoundHandler
                        0x00009b9d     0x2e  Code  Gb  af-main-soc.o [46]
emberNetworkInit        0x000084c5    0x148  Code  Gb  association.o [73]
emberNetworkState       0x0000d3b5     0x16  Code  Gb  ember-stack-common.o [73]
emberNextZigDevRequestSequence
                        0x00031583      0xe  Code  Gb  zigbee-device-common.o [1]
emberOrphanNotificationHandler
                        0x00005d5b      0x2  Code  Gb  ember-configuration.o [1]
emberOverrideAppendSourceRouteHandler
                        0x00005d57      0x4  Code  Gb  ember-configuration.o [1]
emberOverrideIncomingRouteRecordHandler
                        0x00005d55      0x2  Code  Gb  ember-configuration.o [1]
emberPacketHandoffIncoming
                        0x0001ca21      0x4  Code  Gb  packet-handoff.o [38]
emberPacketHandoffOutgoing
                        0x0001ca25      0x4  Code  Gb  packet-handoff.o [38]
emberPanIdConflictHandler
                        0x00005d5d      0x4  Code  Gb  ember-configuration.o [1]
emberPermitJoining      0x00008115     0x96  Code  Gb  association.o [73]
emberPluginNetworkSteeringDistributedKey
                        0x2000b5b0     0x10  Data  Gb  network-steering.o [28]
emberPollCompleteHandler
                        0x00005d45      0x2  Code  Gb  ember-configuration.o [1]
emberPollHandler        0x00005d4f      0x2  Code  Gb  ember-configuration.o [1]
emberPrintCommandTable  0x0001fa6b     0x1c  Code  Gb  command-interpreter2.o [1]
emberPrintCommandUsage  0x0001fa1b     0x36  Code  Gb  command-interpreter2.o [1]
emberPrintCommandUsageNotes
                        0x0001fa51     0x12  Code  Gb  command-interpreter2.o [1]
emberProcessCommandString
                        0x0001f52d    0x170  Code  Gb  command-interpreter2.o [1]
emberProxyBroadcast     0x0001ff79     0x62  Code  Gb  application-support.o [73]
emberProxyNextBroadcastFromLong
                        0x0001ffdb     0x16  Code  Gb  application-support.o [73]
emberRadioNeedsCalibratingHandler
                        0x00014c2f      0x4  Code  Gb  ember-base-configuration.o [1]
emberRawTransmitCompleteHandler
                        0x00005d4d      0x2  Code  Gb  ember-configuration.o [1]
emberReallyAppendToLinkedBuffers
                        0x000078e1    0x108  Code  Gb  buffer-management.o [73]
emberReallySetLinkedBuffersLength
                        0x000207dd     0x34  Code  Gb  legacy-packet-buffer.o [73]
emberRemoteDeleteBindingHandler
                        0x000098a3     0x2e  Code  Gb  af-main-soc.o [46]
emberRemoteSetBindingHandler
                        0x0000983b     0x68  Code  Gb  af-main-soc.o [46]
emberRequestLinkKey     0x0001e72f     0xf6  Code  Gb  aps-keys.o [73]
emberRtosIdleHandler    0x00005d69      0x4  Code  Gb  ember-configuration.o [1]
emberRtosStackWakeupIsrHandler
                        0x00005d6d      0x2  Code  Gb  ember-configuration.o [1]
emberRunEvents          0x000048bf     0x38  Code  Gb  event-control.o [73]
emberRunTask            0x000048f7     0x2a  Code  Gb  event-control.o [73]
emberScanCompleteHandler
                        0x00009bd7     0x1a  Code  Gb  af-main-soc.o [46]
emberScanErrorHandler   0x0000e2a3      0xe  Code  Gb  af-main-common.o [46]
emberScanForNextJoinableNetwork
                        0x00020d0b     0x8c  Code  Gb  form-and-join.o [19]
emberSecurityLevel      0x0000d2df     0x12  Code  Gb  ember-stack-common.o [73]
emberSendBroadcast      0x0001ff39     0x40  Code  Gb  application-support.o [73]
emberSendMulticast      0x0002005d     0x4e  Code  Gb  application-support.o [73]
emberSendMulticastWithAlias
                        0x0001fff1     0x6c  Code  Gb  application-support.o [73]
emberSendParentAnnouncement
                        0x000175e7     0x84  Code  Gb  zigbee-device-util.o [73]
emberSendRemoveDevice   0x0001c38b     0x66  Code  Gb  trust-center-util.o [73]
emberSendUnicast        0x0001fe6b     0xce  Code  Gb  application-support.o [73]
emberSendZigDevRequest  0x00024c59     0x30  Code  Gb  zigbee-device-library.o [1]
emberSerialGuaranteedPrintf
                        0x0000bfaf     0x18  Code  Gb  serial.o [42]
emberSerialInit         0x0000bef1     0x98  Code  Gb  serial.o [42]
emberSerialPrintCarriageReturn
                        0x000228db      0x4  Code  Gb  ember-printf.o [15]
emberSerialPrintf       0x00022905     0x10  Code  Gb  ember-printf.o [15]
emberSerialPrintfLine   0x000228e9     0x1c  Code  Gb  ember-printf.o [15]
emberSerialPrintfVarArg
                        0x00022915      0xa  Code  Gb  ember-printf.o [15]
emberSerialReadAvailable
                        0x0000bf89      0x4  Code  Gb  serial.o [42]
emberSerialReadByte     0x0000bf8d      0xa  Code  Gb  serial.o [42]
emberSerialUnused       0x0000bfd5      0x4  Code  Gb  serial.o [42]
emberSerialWaitSend     0x0000bfa5      0xa  Code  Gb  serial.o [42]
emberSerialWriteData    0x0000bf9b      0xa  Code  Gb  serial.o [42]
emberSerialWriteUsed    0x0000bf97      0x4  Code  Gb  serial.o [42]
emberSetAddressTableRemoteEui64
                        0x0000e34d     0x88  Code  Gb  address-table.o [73]
emberSetAddressTableRemoteNodeId
                        0x0000e3d5     0x5c  Code  Gb  address-table.o [73]
emberSetBinding         0x0000e8e5     0x6a  Code  Gb  binding-table.o [48]
emberSetExtendedSecurityBitmask
                        0x00018dcb     0x34  Code  Gb  aps-security.o [73]
emberSetExtendedTimeout
                        0x0000e68f     0x28  Code  Gb  address-table.o [73]
emberSetInitialSecurityState
                        0x00018c7d    0x134  Code  Gb  aps-security.o [73]
emberSetLinkedBuffersByte
                        0x000208b7     0x22  Code  Gb  legacy-packet-buffer.o [73]
emberSetLinkedBuffersLowHighInt16u
                        0x00020933     0x1e  Code  Gb  legacy-packet-buffer.o [73]
emberSetLogicalAndRadioChannel
                        0x00009465     0x26  Code  Gb  association.o [73]
emberSetNumBeaconsToStore
                        0x0000a115     0x12  Code  Gb  beacon-handling.o [73]
emberSetRadioChannel    0x0000940f     0x46  Code  Gb  association.o [73]
emberSetRadioPower      0x0000d44d     0x36  Code  Gb  ember-stack-common.o [73]
emberSetSecurityLevel   0x0000d2f1     0x14  Code  Gb  ember-stack-common.o [73]
emberSetSourceRouteDiscoveryMode
                        0x00020c1f      0x6  Code  Gb  source-route-stub.o [72]
emberSetStackProfile    0x0001878b     0x12  Code  Gb  zigbee-stack.o [73]
emberSetTxPowerMode     0x0001e0c1      0x4  Code  Gb  lower-mac-rail-802.15.4.o [73]
emberStackIsPerformingRejoin
                        0x00007eef     0x26  Code  Gb  association.o [73]
emberStackIsUp          0x0000d3cb     0x20  Code  Gb  ember-stack-common.o [73]
emberStackProfile       0x0001877b     0x10  Code  Gb  zigbee-stack.o [73]
emberStackStatusHandler
                        0x000099ad     0x14  Code  Gb  af-main-soc.o [46]
emberStackTokenChangedHandler
                        0x00005d61      0x2  Code  Gb  ember-configuration.o [1]
emberStartScan          0x000058ad     0xd8  Code  Gb  zigbee-scan.o [73]
emberStartWritingStackTokens
                        0x00017aaf     0x1e  Code  Gb  token-cache.o [73]
emberStopScan           0x00005991     0x16  Code  Gb  zigbee-scan.o [73]
emberStoreLowHighInt16u
                        0x0001a7c1      0x8  Code  Wk  mac-header.o [73]
emberSwitchNetworkKeyHandler
                        0x00005d41      0x2  Code  Gb  ember-configuration.o [1]
emberTaskInit           0x00004921     0x46  Code  Gb  event-control.o [73]
emberTcRejoinsUsingWellKnownKeyAllowed
                        0x000095f5     0x16  Code  Gb  association.o [73]
emberTick               0x00018419    0x142  Code  Gb  zigbee-stack.o [73]
emberTransientKeyTimeoutS
                        0x20009e8e      0x2  Data  Gb  ember-configuration.o [1]
emberTrustCenterJoinHandler
                        0x0002d699     0x4c  Code  Gb  af-trust-center.o [46]
emberTrustCenterLinkKeyRequestPolicies
                        0x2000ffcf      0x1  Data  Gb  ember-configuration.o [1]
emberUpdateTcLinkKey    0x0001e901     0x50  Code  Gb  aps-keys.o [73]
emberUpdateTcLinkKey::allZeroEui64
                        0x0001ea2c      0x8  Data  Lc  aps-keys.o [73]
emberZigbeeKeyEstablishmentHandler
                        0x00009c19      0x4  Code  Gb  af-main-soc.o [46]
emberZigbeeRemoveChild  0x00018221     0x48  Code  Gb  leave.o [73]
emberZllClearTokens     0x00007a31      0x2  Code  Gb  zll-stubs.o [75]
emberZllRxOnWhenIdleGetActive
                        0x00007a3f      0x4  Code  Gb  zll-stubs.o [75]
enableRxIrq             0x00021d6b     0x72  Code  Lc  com.o [41]
enablementBytes         0x20009eb1      0x1  Data  Lc  print.o [46]
encryptNonce            0x00031c7d     0x24  Code  Lc  ccm-star.o [9]
encryptionBlock         0x2000bca0     0x10  Data  Lc  ccm-star.o [9]
endEraseOffset          0x2000ae64      0x4  Data  Lc  ota-storage-eeprom-page-erase.o [37]
energyScanComplete      0x00020c29     0x90  Code  Lc  form-and-join.o [19]
energyScanCompleteHandler
                        0x0000582d     0x1c  Code  Lc  zigbee-scan.o [73]
energy_reads_average    0x2000fbce      0x2  Data  Lc  scan.o [73]
energy_reads_count      0x2000fbdc      0x4  Data  Lc  scan.o [73]
energy_reads_max        0x2000fbc3      0x1  Data  Lc  scan.o [73]
energy_reads_min        0x2000fbc2      0x1  Data  Lc  scan.o [73]
energy_reads_variance   0x2000fbd0      0x2  Data  Lc  scan.o [73]
energy_scan_response_callback
                        0x00005869     0x2c  Code  Lc  zigbee-scan.o [73]
energy_scan_result_summary_index
                        0x2000fbbc      0x1  Data  Gb  scan.o [73]
enrollmentMethod        0x2000ff6e      0x1  Data  Lc  ias-zone-server.o [24]
entryGetGroup           0x00029cb5      0xc  Code  Lc  nvm3_cache.o [62]
entryScore              0x0002c7fd     0x1a  Code  Lc  neighbor-exchange.o [73]
entrySetGroup           0x00029cd3     0x14  Code  Lc  nvm3_cache.o [62]
entrySetKey             0x00029cc1     0x12  Code  Lc  nvm3_cache.o [62]
entrySetPtr             0x00029ce7      0xa  Code  Lc  nvm3_cache.o [62]
eraseAllPages           0x00013dcb     0x70  Code  Lc  nvm3.o [62]
eraseFirstPageCallback  0x00013d9f     0x2c  Code  Lc  nvm3.o [62]
eraseFirstPageScanCacheCallback
                        0x00013d7d     0x22  Code  Lc  nvm3.o [62]
eraseOperation          0x00030929     0x80  Code  Lc  ota-storage-eeprom-page-erase.o [37]
erasePage               0x00013d5b     0x22  Code  Lc  nvm3.o [62]
error_flag              0x2000ff71      0x1  Data  Lc  sl_hfxo_manager_hal_s2.o [22]
error_try_cnt           0x2000ff72      0x1  Data  Lc  sl_hfxo_manager_hal_s2.o [22]
errors                  0x2000ff5b      0x1  Data  Lc  ota-client.o [32]
euiLookupErrorOccurred  0x0002304b      0xa  Code  Lc  ota-client.o [32]
evaluate_wakeup         0x00021a93     0x66  Code  Lc  sl_power_manager.o [21]
eventStartTime          0x2000fb78      0x4  Data  Lc  retry.o [73]
eventStoreAndForwardStartTime
                        0x2000fc10      0x4  Data  Lc  store-forward.o [73]
events_handle           0x2000bb28      0x8  Data  Lc  sleep-efm32.o [14]
events_handler          0x0000bd75     0xb0  Code  Lc  sleep-efm32.o [14]
events_info             0x2000998c      0x8  Data  Lc  sleep-efm32.o [14]
executeCallback         0x00024eef     0x26  Code  Lc  service-discovery-common.o [46]
exit                    0x0003881b      0x4  Code  Gb  exit.o [57]
expandPointerNoCheck    0x00007291     0x16  Code  Lc  buffer-management.o [73]
extendedPanIdCache      0x2000b66c      0x8  Data  Lc  form-and-join.o [19]
fac_0000                0x2000ffb9      0x1  Data  Lc  ikk-user.o [2]
fac_0002                0x2000ffba      0x1  Data  Lc  ikk-user.o [2]
fac_000a                0x2000ffb8      0x1  Data  Lc  ikk-user.o [2]
fac_000b                0x2000ffbc      0x1  Data  Lc  ikk-user.o [2]
fac_ed00                0x2000ffb7      0x1  Data  Lc  ikk-user.o [2]
fac_ed04                0x2000ffbb      0x1  Data  Lc  ikk-user.o [2]
fat_test_flag           0x2000ffb6      0x1  Data  Lc  ikk-user.o [2]
fault                   0x00029701           Code  Gb  faults-v7m.o [14]
fifoReadObj             0x00013421    0x14a  Code  Lc  nvm3.o [62]
fifoScan                0x00013ae5     0x6a  Code  Lc  nvm3.o [62]
fifoUpdateCounter       0x000141fd     0xf8  Code  Lc  nvm3.o [62]
fifoWriteObj            0x00013265    0x11a  Code  Lc  nvm3.o [62]
fifoWriteWrapper        0x00013389     0x8e  Code  Lc  nvm3.o [62]
findBroadcastTableEntry
                        0x0002a6c5     0x5a  Code  Lc  broadcast.o [73]
findClusterEndpointIndex
                        0x00005031     0x52  Code  Lc  attribute-storage.o [46]
findCurrentEraseCnt     0x00013cfd     0x50  Code  Lc  nvm3.o [62]
findDatagramDestination
                        0x000260bb    0x10c  Code  Lc  aps-retry.o [73]
findEventContext        0x000044e9     0x36  Code  Lc  af-event.o [46]
findFirstPage           0x0001398b     0x86  Code  Lc  nvm3.o [62]
findIndexFromEndpoint   0x00005083     0x36  Code  Lc  attribute-storage.o [46]
findLongAddressEntry    0x0000e489     0x4a  Code  Lc  address-table.o [73]
findNeighborIndex       0x0001b8fd     0x3e  Code  Lc  neighbor.o [73]
findNextObj             0x00013a71     0x6e  Code  Lc  nvm3.o [62]
findNumberOfUnusedPages
                        0x00013a1d     0x48  Code  Lc  nvm3.o [62]
findObj                 0x000137b9    0x162  Code  Lc  nvm3.o [62]
findOrRemoveTransientLinkKey
                        0x0002dfb7     0xb2  Code  Lc  aps-keys-transient.o [73]
findRouteTableEntry     0x0002a357     0x46  Code  Lc  route-table.o [73]
findStateForResponse    0x00025187     0x30  Code  Lc  service-discovery-common.o [46]
findTransientLinkKey    0x0002e069      0xc  Code  Lc  aps-keys-transient.o [73]
findUnusedState         0x0002515b     0x2c  Code  Lc  service-discovery-common.o [46]
findValidPageCnt        0x00013955     0x36  Code  Lc  nvm3.o [62]
finishPendingAckedMessage
                        0x00026259    0x1d8  Code  Lc  aps-retry.o [73]
finishSetChannel        0x00009385     0x7c  Code  Lc  association.o [73]
firstByteOfArg          0x0001f6c7     0x18  Code  Lc  command-interpreter2.o [1]
firstTimeInitStates     0x00025131     0x2a  Code  Lc  service-discovery-common.o [46]
fixedEepromInfo         0x2000b67c     0x18  Data  Gb  bootloader-interface-app.o [18]
fixedOffset             0x20009de4      0x4  Data  Lc  mac-flat-header.o [73]
flashWaitStateControl   0x00012b6d     0x40  Code  Lc  em_cmu.o [17]
flashWriteSE            0x00014af3     0x52  Code  Lc  mfg-token.o [14]
formAndJoinGetNetworkPointer
                        0x000293e5      0xc  Code  Gb  form-and-join-node-adapter.o [19]
formAndJoinMarkBuffers  0x00029425      0x6  Code  Gb  form-and-join-node-adapter.o [19]
formAndJoinReleaseBuffer
                        0x00029413     0x12  Code  Gb  form-and-join-node-adapter.o [19]
formAndJoinScanType     0x2000ff7f      0x1  Data  Lc  form-and-join.o [19]
formAndJoinSetBufferLength
                        0x000293fb     0x18  Code  Gb  form-and-join-node-adapter.o [19]
formAndJoinSetCleanupTimeout
                        0x000293f1      0xa  Code  Gb  form-and-join-node-adapter.o [19]
formAndJoinStackProfile
                        0x000293e1      0x4  Code  Gb  form-and-join-node-adapter.o [19]
forwardTunneledCommand  0x0001911f     0xc8  Code  Lc  aps-security.o [73]
fragmentDelay           0x2000f969      0x1  Data  Lc  aps-retry.o [73]
freq                    0x2000bb18      0x4  Data  Lc  ustimer.o [16]
gConfiguredKey          0x2000b5a0     0x10  Data  Lc  network-steering.o [28]
gExtendedPanIdToFilterOn
                        0x2000b598      0x8  Data  Lc  network-steering.o [28]
gFilterByExtendedPanId  0x2000ff63      0x1  Data  Lc  network-steering.o [28]
gProxySourceNodeId      0x2000f8b6      0x2  Data  Lc  zigbee-device-util.o [73]
gProxyTheBroadcast      0x2000f8b5      0x1  Data  Lc  zigbee-device-util.o [73]
gScanDuration           0x20009ee4      0x1  Data  Gb  association.o [73]
gSeq                    0x20009eeb      0x1  Data  Lc  zigbee-device-util.o [73]
gUseConfiguredKey       0x2000ff64      0x1  Data  Lc  network-steering.o [28]
g_Eui64GatewayAddr      0x20009994      0x8  Data  Gb  ikk-network.o [4]
g_RttManagerInsc        0x2000d1c8      0x8  Data  Gb  ikk-rtt.o [5]
g_RttMsgRecvQueue       0x2000cd70    0x22c  Data  Gb  ikk-rtt.o [5]
g_RttZigbeeSentQueue    0x2000cf9c    0x22c  Data  Gb  ikk-rtt.o [5]
g_bBodyLensTestFlg      0x2000ffb2      0x1  Data  Gb  ikk-user.o [2]
g_bFirstJionFlg         0x2000ffc4      0x1  Data  Gb  ikk-user.o [2]
g_bHumanBodyStopReportFlg
                        0x2000ffb1      0x1  Data  Gb  ikk-user.o [2]
g_bIsCheckedZeroFlg     0x2000ffa5      0x1  Data  Lc  ikk-relay.o [3]
g_bIsNwkJoiningFlg      0x2000ff97      0x1  Data  Lc  ikk-network.o [4]
g_bIsRejoinedNwkFlg     0x2000ff9b      0x1  Data  Lc  ikk-network.o [4]
g_bNwkSteeringCompleteFlg
                        0x2000ff99      0x1  Data  Lc  ikk-network.o [4]
g_bNwkSteeringMacFailureFlg
                        0x2000ff9a      0x1  Data  Lc  ikk-network.o [4]
g_bStartBodySensorSingleBoardTestFlg
                        0x2000ffb0      0x1  Data  Gb  ikk-user.o [2]
g_eCurrentNetworkStatus
                        0x20009ebc      0x1  Data  Lc  ikk-network.o [4]
g_eFactoryTestStatus    0x2000ff91      0x1  Data  Lc  ikk-factory-test.o [4]
g_eFactoryTestStatus    0x2000ffb5      0x1  Data  Gb  ikk-user.o [2]
g_eLastFactoryTestStatus
                        0x2000ff92      0x1  Data  Lc  ikk-factory-test.o [4]
g_eLastNetworkStatus    0x20009ebd      0x1  Data  Lc  ikk-network.o [4]
g_eOTAStatus            0x2000ffa0      0x1  Data  Lc  ikk-ota.o [4]
g_eSensorCheckStatus    0x2000ffaf      0x1  Data  Gb  ikk-user.o [2]
g_factoryTestConfList   0x200099ec      0x8  Data  Gb  ikk-user.o [2]
g_lstBindingClusterConf
                        0x2000d6a4     0x48  Data  Gb  ikk-network.o [4]
g_pBtnActionCallback    0x2000d904      0xc  Data  Gb  ikk-button.o [3]
g_pFactoryTestPollCallback
                        0x2000d698      0x4  Data  Lc  ikk-factory-test.o [4]
g_pJoinCompleteCallback
                        0x2000d710      0x4  Data  Gb  ikk-network.o [4]
g_pLedActionDoneCallback
                        0x2000d920      0x4  Data  Gb  ikk-led.o [3]
g_pLedActionHandleCallback
                        0x2000d924      0x4  Data  Gb  ikk-led.o [3]
g_pLedBlinkDoneCallback
                        0x2000d928     0x20  Data  Gb  ikk-led.o [3]
g_pLedBlinkHandelCallback
                        0x2000d948     0x20  Data  Gb  ikk-led.o [3]
g_pNetworkExitCompleteCallback
                        0x2000d718      0x4  Data  Gb  ikk-network.o [4]
g_pNetworkStatusNotifyCallback
                        0x2000d714      0x4  Data  Gb  ikk-network.o [4]
g_pNetworkStopTaskCallback
                        0x2000d71c      0x4  Data  Gb  ikk-network.o [4]
g_pOTACallback          0x2000d7a4      0x4  Data  Gb  ikk-ota.o [4]
g_pOptDataIncomingMessageCallback
                        0x2000d774      0x4  Data  Gb  ikk-opt-tunnel.o [4]
g_pRelayOptLedCallback  0x2000debc      0x4  Data  Gb  ikk-relay.o [3]
g_pfScheduleTaskCallback
                        0x2000d744     0x10  Data  Gb  ikk-network.o [4]
g_schedule_id           0x2000d720      0x4  Data  Gb  ikk-network.o [4]
g_stAdcValueList        0x2000d814     0x68  Data  Gb  ikk-adc.o [3]
g_stBatteryInfo         0x2000d7b0     0x64  Data  Gb  ikk-adc.o [3]
g_stBindedTaskObj       0x2000d700      0x8  Data  Lc  ikk-network.o [4]
g_stBtnConfList         0x2000d884     0x80  Data  Lc  ikk-button.o [3]
g_stClickDetectCtrller  0x2000a150    0x240  Data  Lc  ikk-button.o [3]
g_stDeviceObject        0x2000d6a0      0x4  Data  Gb  ikk-network.o [4]
g_stEnrolledTaskObj     0x2000d6f0      0x8  Data  Lc  ikk-network.o [4]
g_stFactoryTestControllerList
                        0x2000d66c     0x28  Data  Gb  ikk-factory-test.o [4]
g_stKtimerBuffer        0x2000dec4     0x50  Data  Gb  ikk-timer.o [3]
g_stLedConfList         0x2000da28    0x1c0  Data  Lc  ikk-led.o [3]
g_stLedCtrller          0x2000d968     0xc0  Data  Lc  ikk-led.o [3]
g_stPwmConfList         0x2000dbf0     0x78  Data  Lc  ikk-pwm.o [3]
g_stRelayChannelConfList
                        0x2000dc70    0x240  Data  Lc  ikk-relay.o [3]
g_stRelayStatusList     0x200099b0     0x10  Data  Lc  ikk-relay.o [3]
g_stRelayStatusListBkp  0x200099c0     0x10  Data  Lc  ikk-relay.o [3]
g_stZclClusterReportPermitTable
                        0x2000d3e8    0x164  Data  Gb  ikk-cluster.o [4]
g_tmp_buffer            0x2000d778     0x24  Data  Gb  ikk-opt-tunnel.o [4]
g_tmp_length            0x2000ff9f      0x1  Data  Gb  ikk-opt-tunnel.o [4]
g_u16BodySensorSequenceRecord
                        0x2000ff14      0x2  Data  Gb  ikk-user.o [2]
g_u16BodySensorStopReportSequenceRecord
                        0x2000ff16      0x2  Data  Gb  ikk-user.o [2]
g_u16FactoryTestSeq     0x2000ff1a      0x2  Data  Gb  ikk-user.o [2]
g_u32AgingTotalTimeMS   0x2000d694      0x4  Data  Lc  ikk-factory-test.o [4]
g_u32BindingResultCheckCounter
                        0x2000d6fc      0x4  Data  Lc  ikk-network.o [4]
g_u32CheckedZeroCount   0x2000deb0      0x4  Data  Lc  ikk-relay.o [3]
g_u32Count              0x2000d69c      0x4  Data  Lc  ikk-factory-test.o [4]
g_u32EnrollResultCheckCounter
                        0x2000d6ec      0x4  Data  Lc  ikk-network.o [4]
g_u32NwkExitCountDownCounter
                        0x2000d70c      0x4  Data  Lc  ikk-network.o [4]
g_u32NwkJoiningCountdownCounter
                        0x2000d708      0x4  Data  Lc  ikk-network.o [4]
g_u32RejoinResultCheckCounter
                        0x2000d6f8      0x4  Data  Lc  ikk-network.o [4]
g_u32RelayDelayOnTimeUS
                        0x2000deb4      0x4  Data  Lc  ikk-relay.o [3]
g_u32RelayZeroCheckCountdownCounter
                        0x2000deb8      0x4  Data  Lc  ikk-relay.o [3]
g_u32ScheduleTaskPeroidIntervalMS
                        0x2000d754     0x10  Data  Gb  ikk-network.o [4]
g_u64NetworkAnomalyBaseTimeStamp
                        0x2000a148      0x8  Data  Gb  ikk-network.o [4]
g_u8BtnNum              0x2000ffa4      0x1  Data  Lc  ikk-button.o [3]
g_u8FactoryTestLedId    0x2000ff94      0x1  Data  Lc  ikk-factory-test.o [4]
g_u8LongPressedKeyIndex
                        0x2000ff93      0x1  Data  Lc  ikk-factory-test.o [4]
g_u8MfgChannel          0x20009ec7      0x1  Data  Gb  ikk-user.o [2]
g_u8MsgSentErrorCounter
                        0x2000ff98      0x1  Data  Lc  ikk-network.o [4]
g_u8NwkBtnId            0x2000ff96      0x1  Data  Lc  ikk-network.o [4]
g_u8NwkLedId            0x2000ff95      0x1  Data  Lc  ikk-network.o [4]
g_u8OtaLedId            0x2000ffa1      0x1  Data  Lc  ikk-ota.o [4]
g_u8RelayChannelNum     0x2000ffa6      0x1  Data  Lc  ikk-relay.o [3]
g_u8SystemSetupStatus   0x2000ffae      0x1  Data  Lc  ikk-user.o [2]
g_u8TimeMS              0x2000ffa3      0x1  Data  Lc  ikk-button.o [3]
g_uManagerInsc          0x200099d4     0x18  Data  Gb  ikk-uart.o [3]
g_uMsgRecvQueue         0x2000df14    0xacc  Data  Gb  ikk-uart.o [3]
g_uMsgSentQueue         0x2000e9e0    0xacc  Data  Gb  ikk-uart.o [3]
generatedAttributes     0x00038bf8    0x24c  Data  Gb  attribute-storage.o [46]
generatedClusters       0x00038e44     0xdc  Data  Gb  attribute-storage.o [46]
generatedCommands       0x00038bcc     0x28  Data  Gb  attribute-storage.o [46]
generatedDefaults       0x00038b3c     0x70  Data  Gb  attribute-storage.o [46]
generatedEmberAfEndpointTypes
                        0x00038f20      0x8  Data  Gb  attribute-storage.o [46]
generatedReportingConfigDefaults
                        0x000392fc     0xc8  Data  Gb  reporting-default-configuration.o [39]
getByteMaskIndexFromEeprom
                        0x00030a47     0x5a  Code  Lc  ota-storage-eeprom-page-erase.o [37]
getComHandleFromPort    0x00021c25     0x32  Code  Lc  com.o [41]
getCurrentOffset        0x00022e07     0x28  Code  Lc  ota-client.o [32]
getEdCcaThreshold       0x0001e129     0x18  Code  Lc  lower-mac-rail-802.15.4.o [73]
getEndDeviceRssiByNodeid
                        0x00029435     0x2e  Code  Gb  ikk-common-utils.o [4]
getFirstObjAdrInNextGoodPage
                        0x00012e6f     0x4e  Code  Lc  nvm3.o [62]
getFreeSize             0x00012ebd     0x4e  Code  Lc  nvm3.o [62]
getLittleEndianInt16uFromBlock
                        0x000284bd      0xc  Code  Lc  ota-storage-simple.o [36]
getLittleEndianInt32uFromBlock
                        0x000284c9     0x16  Code  Lc  ota-storage-simple.o [36]
getManufacturerCode     0x00004d07     0x1e  Code  Lc  attribute-storage.o [46]
getMfgTokenData         0x000149f9     0xb6  Code  Lc  mfg-token.o [14]
getMultiNetworkTokenAddress
                        0x00017991     0x22  Code  Lc  token-cache.o [73]
getNestedCommand        0x0001f69d     0x1c  Code  Lc  command-interpreter2.o [1]
getNextObj              0x00012f53     0x30  Code  Lc  nvm3.o [62]
getNonvolatileBinding   0x0000e735     0x2a  Code  Lc  binding-table.o [48]
getObjContent           0x0001391b     0x3a  Code  Lc  nvm3.o [62]
getOutputFifoSpace      0x00021c57     0x14  Code  Lc  com.o [41]
getPreviousGoodPage     0x00012e2f     0x36  Code  Lc  nvm3.o [62]
getServerMask           0x0002cb55     0x38  Code  Gb  zigbee-device.o [73]
getSizeInWords          0x000072a7     0x12  Code  Lc  buffer-management.o [73]
getTrustCenterToken     0x0001e4d7      0xc  Code  Lc  aps-keys.o [73]
get_lowest_em           0x00021a19     0x16  Code  Lc  sl_power_manager.o [21]
get_next_scan_channel   0x0000a023     0x14  Code  Lc  scan.o [73]
globalApsFrame          0x2000aad4      0xc  Data  Gb  zcl-cli.o [46]
gotoNextChannel         0x000251c5     0xb2  Code  Gb  network-steering.o [28]
gpScanCompleteHandler   0x00005895     0x12  Code  Lc  zigbee-scan.o [73]
gp_scan_request_callback
                        0x000058a7      0x4  Code  Lc  zigbee-scan.o [73]
gpioCallbacks           0x2000ba40     0x40  Data  Lc  gpiointerrupt.o [16]
grep_2                  0x20009ebf      0x1  Data  Lc  ikk-user.o [2]
grep_3                  0x20009ec0      0x1  Data  Lc  ikk-user.o [2]
grep_5                  0x20009ec1      0x1  Data  Lc  ikk-user.o [2]
grep_6                  0x20009ec2      0x1  Data  Lc  ikk-user.o [2]
grep_7                  0x20009ec3      0x1  Data  Lc  ikk-user.o [2]
grep_9                  0x20009ec4      0x1  Data  Lc  ikk-user.o [2]
grep_c                  0x2000ffb3      0x1  Data  Lc  ikk-user.o [2]
grep_f                  0x2000ffb4      0x1  Data  Lc  ikk-user.o [2]
guardRegionPlaceHolder  0x20002900     0x20  Data  Gb  cstartup-common.o [14]
halAppAddressTable      0x00004000     0xac  Data  Gb  cstartup-common.o [14]
halAppBootloaderEraseRawStorage
                        0x00022a81     0x18  Code  Gb  bootloader-interface-app.o [18]
halAppBootloaderImageIsValid
                        0x000229e3     0x34  Code  Gb  bootloader-interface-app.o [18]
halAppBootloaderImageIsValidReset
                        0x000229ab     0x38  Code  Gb  bootloader-interface-app.o [18]
halAppBootloaderInfo    0x00022949     0x62  Code  Gb  bootloader-interface-app.o [18]
halAppBootloaderInit    0x00022921     0x28  Code  Gb  bootloader-interface-app.o [18]
halAppBootloaderInstallNewImage
                        0x00022a17     0x24  Code  Gb  bootloader-interface-app.o [18]
halAppBootloaderReadRawStorage
                        0x00022a69     0x18  Code  Gb  bootloader-interface-app.o [18]
halAppBootloaderStorageBusy
                        0x00022a99     0x14  Code  Gb  bootloader-interface-app.o [18]
halAppBootloaderWriteRawStorage
                        0x00022a51     0x18  Code  Gb  bootloader-interface-app.o [18]
halBootloaderAddressTable
                        0x00000000     0x54  Data  Gb  cstartup-common.o [14]
halCommonCrc16          0x000291a9     0x26  Code  Gb  crc.o [1]
halCommonDelayMicroseconds
                        0x0002dd7f      0x4  Code  Gb  micro-common-internal.o [60]
halCommonGetInt16uMillisecondTick
                        0x00005a55      0xa  Code  Gb  system-timer.o [60]
halCommonGetInt16uQuarterSecondTick
                        0x00005a5f     0x10  Code  Gb  system-timer.o [60]
halCommonGetInt32uMillisecondTick
                        0x00005a71      0x2  Code  Gb  system-timer.o [60]
halCommonGetInt64uMillisecondTick
                        0x00005a75     0x1e  Code  Gb  system-timer.o [60]
halCommonGetRandom      0x00011cd9     0x1a  Code  Gb  random.o [1]
halCommonIdleForMilliseconds
                        0x00005ab7     0x1a  Code  Gb  system-timer.o [60]
halConfigInit           0x0002e649     0x9c  Code  Gb  hal-config.o [21]
halEnergyModeNotificationInit
                        0x0000bd57     0x1c  Code  Gb  sleep-efm32.o [14]
halGetAntennaMode       0x0002eb3d      0x4  Code  Gb  antenna-stub.o [7]
halGetAntennaSelected   0x0002eb39      0x4  Code  Gb  antenna-stub.o [7]
halGetExtendedResetInfo
                        0x0001f077      0x6  Code  Gb  cstartup-common.o [14]
halGetExtendedResetString
                        0x0001ef99     0x1a  Code  Gb  micro.o [14]
halGetExtendedResetString::BOOTLOADERResetStringTable
                        0x0003a918     0x20  Data  Lc  micro.o [14]
halGetExtendedResetString::BROWNOUTResetStringTable
                        0x0003a9ac     0x20  Data  Lc  micro.o [14]
halGetExtendedResetString::CRASHResetStringTable
                        0x0003a968      0x8  Data  Lc  micro.o [14]
halGetExtendedResetString::EXTERNALResetStringTable
                        0x0003a938      0xc  Data  Lc  micro.o [14]
halGetExtendedResetString::FATALResetStringTable
                        0x0003a97c     0x10  Data  Lc  micro.o [14]
halGetExtendedResetString::FAULTResetStringTable
                        0x0003a98c     0x20  Data  Lc  micro.o [14]
halGetExtendedResetString::FIBResetStringTable
                        0x0003a8c0     0x58  Data  Lc  micro.o [14]
halGetExtendedResetString::FLASHResetStringTable
                        0x0003a970      0xc  Data  Lc  micro.o [14]
halGetExtendedResetString::POWERONResetStringTable
                        0x0003a944      0x8  Data  Lc  micro.o [14]
halGetExtendedResetString::SOFTWAREResetStringTable
                        0x0003a958     0x10  Data  Lc  micro.o [14]
halGetExtendedResetString::UNKNOWNResetStringTable
                        0x0003a8bc      0x4  Data  Lc  micro.o [14]
halGetExtendedResetString::WATCHDOGResetStringTable
                        0x0003a94c      0xc  Data  Lc  micro.o [14]
halGetExtendedResetString::extendedResetStringTablePtrs
                        0x0003a9cc     0x30  Data  Lc  micro.o [14]
halGetResetInfo         0x0001f06f      0x8  Code  Gb  cstartup-common.o [14]
halGetResetString       0x0001ef85     0x14  Code  Gb  micro.o [14]
halGetResetString::resetStringTable
                        0x0003a88c     0x30  Data  Lc  micro.o [14]
halInit                 0x0001eaa3    0x492  Code  Gb  micro.o [14]
halInitAntenna          0x0002eb11     0x24  Code  Gb  antenna-stub.o [7]
halInternalAssertFailed
                        0x00005b3d     0x2c  Code  Gb  assert-crash-handlers.o [14]
halInternalAssertFault  0x00005b39      0x4  Code  Lc  assert-crash-handlers.o [14]
halInternalClassifyReset
                        0x0001efed     0x82  Code  Gb  cstartup-common.o [14]
halInternalClassifyReset::resetEventTable
                        0x00039b88     0x20  Data  Lc  cstartup-common.o [14]
halInternalCrashHandler
                        0x00005b69    0x194  Code  Gb  assert-crash-handlers.o [14]
halInternalDisableWatchDog
                        0x00006acf      0xe  Code  Gb  micro-common.o [14]
halInternalEm4Wakeup    0x0000bd1d     0x12  Code  Gb  sleep-efm32.o [14]
halInternalEnableWatchDog
                        0x00006a81     0x48  Code  Gb  micro-common.o [14]
halInternalFlashWrite   0x0002a091     0x68  Code  Gb  flash.o [60]
halInternalGetCStackBottom
                        0x0000c011      0x4  Code  Gb  micro-internal.o [60]
halInternalGetCtuneToken
                        0x0002dd9f     0x2c  Code  Gb  micro-common-internal.o [60]
halInternalGetMfgTokenData
                        0x00014aaf     0x44  Code  Gb  mfg-token.o [14]
halInternalGetModuleCtuneXiXo
                        0x0002dd83     0x1c  Code  Gb  micro-common-internal.o [60]
halInternalGetTokenData
                        0x00006cd7     0x5c  Code  Gb  token.o [14]
halInternalIncrementCounterToken
                        0x00006da7     0x2a  Code  Gb  token.o [14]
halInternalPa2p4GHzInit
                        0x20009988      0x4  Data  Gb  micro.o [14]
halInternalResetWatchDog
                        0x00006ac9      0x6  Code  Gb  micro-common.o [14]
halInternalSetMfgTokenData
                        0x00014b45     0xd0  Code  Gb  mfg-token.o [14]
halInternalSetTokenData
                        0x00006d33     0x60  Code  Gb  token.o [14]
halInternalSleep        0x0000be5d     0x50  Code  Gb  sleep-efm32.o [14]
halInternalStartSystemTimer
                        0x00005a95     0x1a  Code  Gb  system-timer.o [60]
halInternalSysReset     0x0000bfd9     0x38  Code  Gb  micro-internal.o [60]
halInternalWatchDogEnabled
                        0x00006add      0xa  Code  Gb  micro-common.o [14]
halInternalWatchDogSleep
                        0x00006ae7      0xa  Code  Gb  micro-common.o [14]
halNvm3Callback         0x00014c33      0x2  Code  Gb  ember-base-configuration.o [1]
halPluginConfig2p4GHzRadio
                        0x0002e6e5     0x2a  Code  Gb  hal-config.o [21]
halPrintCrashData       0x0001f335     0x5e  Code  Gb  diagnostic.o [14]
halPrintCrashDetails    0x0001f1b9    0x16c  Code  Gb  diagnostic.o [14]
halPrintCrashSummary    0x0001f091    0x128  Code  Gb  diagnostic.o [14]
halPtaGetOptions        0x0002e4ab      0x4  Code  Gb  coexistence-802154.o [10]
halPtaIsEnabled         0x0002e4af      0x4  Code  Gb  coexistence-802154.o [10]
halPtaStackEvent        0x0002e4b3      0x4  Code  Gb  coexistence-802154.o [10]
halRadioPowerDownHandler
                        0x00005e61      0x2  Code  Gb  callback-stub.o [1]
halRadioPowerUpHandler  0x00005e63      0x2  Code  Gb  callback-stub.o [1]
halReboot               0x0001ef55      0x8  Code  Gb  micro.o [14]
halResetInfo            0x20000000     0x9c  Data  Gb  cstartup-common.o [14]
halSimEeToNvm3Upgrade   0x00012d6b      0x4  Code  Gb  sim-eeprom2-to-nvm3-upgrade-stub.o [71]
halSleep                0x0000bead      0x2  Code  Gb  sleep-efm32.o [14]
halSleepCallback        0x00005e65      0x2  Code  Gb  callback-stub.o [1]
halStackIndicateActivity
                        0x000293df      0x2  Code  Gb  led.o [14]
halStackInitTokens      0x00006b11    0x1ae  Code  Gb  token.o [14]
halStackProcessBootCount
                        0x0001ef7f      0x6  Code  Gb  micro.o [14]
halStackRadioHoldOffPowerDown
                        0x0002e4b7      0x2  Code  Gb  coexistence-802154.o [10]
halStackRadioHoldOffPowerUp
                        0x0002e4b9      0x2  Code  Gb  coexistence-802154.o [10]
halStackRadioPowerDownBoard
                        0x0001ef5d      0x4  Code  Gb  micro.o [14]
halStackRadioPowerMainControl
                        0x0001ef73      0xc  Code  Gb  micro.o [14]
halStackRadioPowerUpBoard
                        0x0001ef61     0x12  Code  Gb  micro.o [14]
halStackSeedRandom      0x00011cad     0x1c  Code  Gb  random.o [1]
halStackSymbolDelayAIsr
                        0x0000b511      0x2  Code  Wk  symbol-timer.o [73]
halTick                 0x0002dd7d      0x2  Code  Gb  micro-common-internal.o [60]
halToggleAntenna        0x0002eb41      0x4  Code  Gb  antenna-stub.o [7]
halToggleLed            0x000293dd      0x2  Code  Gb  led.o [14]
handleApplicationKeyRequest
                        0x0001c663    0x112  Code  Lc  trust-center-util.o [73]
handleNonAddressConflictRouteError
                        0x0002c6c1     0x6c  Code  Gb  route-error.o [73]
handlerQueue            0x2000adb8     0xa0  Data  Lc  scan-dispatch.o [40]
handlerQueueNextIndex   0x00004651     0x14  Code  Lc  scan-dispatch.o [40]
hardwareVersion         0x2000ff02      0x2  Data  Lc  ota-client.o [32]
hasCapacity             0x0000aa4d     0x28  Code  Lc  beacon-handling.o [73]
haveTrustCenterLinkKey  0x0001e493     0x28  Code  Lc  aps-keys.o [73]
hdrIsLarge              0x00029af9     0x12  Code  Lc  nvm3_object.o [62]
head                    0x2000ff51      0x1  Data  Lc  scan-dispatch.o [40]
headerInfoElement       0x20009ea8      0x2  Data  Lc  mac-command.o [73]
heapMemory              0x20009a94      0x4  Data  Gb  ember-configuration.o [1]
heapMemorySize          0x20009a98      0x4  Data  Gb  ember-configuration.o [1]
heapPointer             0x2000f7b8      0x4  Data  Lc  buffer-management.o [73]
hexToInt                0x0001f4ef     0x1e  Code  Lc  command-interpreter2.o [1]
hfxo_last_startup_time  0x2000b5e0      0x4  Data  Lc  sl_hfxo_manager.o [22]
hfxo_measurement_on     0x2000ff70      0x1  Data  Lc  sl_hfxo_manager.o [22]
hfxo_startup_time_sum_average
                        0x2000b60c      0x4  Data  Lc  sl_hfxo_manager.o [22]
hfxo_startup_time_table
                        0x2000b5e4     0x28  Data  Lc  sl_hfxo_manager.o [22]
hfxo_startup_time_table_index
                        0x2000ff6f      0x1  Data  Lc  sl_hfxo_manager.o [22]
hfxo_startup_time_tc_inital
                        0x2000b610      0x4  Data  Lc  sl_hfxo_manager.o [22]
hfxo_startup_time_tick  0x2000b5dc      0x4  Data  Lc  sl_hfxo_manager.o [22]
highCallback            0x2000bae8      0x4  Data  Lc  tempdrv.o [16]
high_frequency_min_offtime_tick
                        0x2000b64c      0x4  Data  Gb  sl_power_manager.o [21]
humanbody               0x20009a38      0xc  Data  Gb  ikk-user.o [2]
humanbody_tocken        0x2000f628      0xc  Data  Gb  ikk-user.o [2]
iadcClkGet              0x00012bad     0x4c  Code  Lc  em_cmu.o [17]
ieee802154_2p4_antdiv_timing
                        0x0003e23c      0xc  Data  Gb  rail_ieee802154_rf_hal.o [63]
ieee802154_2p4_coherent_timing
                        0x0003e248      0xc  Data  Gb  rail_ieee802154_rf_hal.o [63]
ignoreExtendedPanId     0x2000ff81      0x1  Data  Lc  form-and-join.o [19]
ignoreNonTrustCenter    0x2000ff60      0x1  Data  Lc  ota-client.o [32]
ikkNetJoinFaild1EventControl
                        0x2000f618      0x8  Data  Gb  ikk-user.o [2]
ikkNetJoinFaild1EventHandler
                        0x0000effd     0x2c  Code  Gb  ikk-user.o [2]
ikkNetJoinFaild2EventControl
                        0x2000f620      0x8  Data  Gb  ikk-user.o [2]
ikkNetJoinFaild2EventHandler
                        0x0000f033     0x26  Code  Gb  ikk-user.o [2]
ikkRttMsgDispatchEventControl
                        0x2000d1e0      0x8  Data  Gb  ikk-rtt.o [5]
ikkRttMsgDispatchEventHandler
                        0x00026861     0x28  Code  Gb  ikk-rtt.o [5]
ikkRttRecvLoopCheck     0x00026759     0x60  Code  Gb  ikk-rtt.o [5]
ikkRttRecvLoopCheckEventControl
                        0x2000d1d8      0x8  Data  Gb  ikk-rtt.o [5]
ikkRttRecvLoopCheckEventHandler
                        0x000267e1     0x18  Code  Gb  ikk-rtt.o [5]
ikkRttSentLoopCheckEventControl
                        0x2000d1d0      0x8  Data  Gb  ikk-rtt.o [5]
ikkRttSentLoopCheckEventHandler
                        0x000267c3     0x1e  Code  Gb  ikk-rtt.o [5]
ikkUartMsgDispatchEventControl
                        0x2000f4bc      0x8  Data  Gb  ikk-uart.o [3]
ikkUartMsgDispatchEventHandler
                        0x00028093     0x8e  Code  Gb  ikk-uart.o [3]
ikkUartRecvLoopCheck    0x00027efb    0x152  Code  Gb  ikk-uart.o [3]
ikkUartRecvLoopCheck::MsgNode
                        0x2000f4c4    0x114  Data  Lc  ikk-uart.o [3]
ikkUartRecvLoopCheck::lastTime
                        0x2000a398      0x8  Data  Lc  ikk-uart.o [3]
ikkUartRecvLoopCheck::recving
                        0x2000ffad      0x1  Data  Lc  ikk-uart.o [3]
ikkUartRecvLoopCheckEventControl
                        0x2000f4b4      0x8  Data  Gb  ikk-uart.o [3]
ikkUartRecvLoopCheckEventHandler
                        0x0002804d     0x46  Code  Gb  ikk-uart.o [3]
ikkUartSentLoopCheckEventControl
                        0x2000f4ac      0x8  Data  Gb  ikk-uart.o [3]
ikkUartSentLoopCheckEventHandler
                        0x00027dab    0x132  Code  Gb  ikk-uart.o [3]
ikkUartSentLoopCheckEventHandler::bIsReadySend
                        0x2000ffab      0x1  Data  Lc  ikk-uart.o [3]
ikkUartSentLoopCheckEventHandler::bIsReceivedOrTimeout
                        0x2000ffac      0x1  Data  Lc  ikk-uart.o [3]
ikkUartSentLoopCheckEventHandler::bIsSentBusy
                        0x2000ffa9      0x1  Data  Lc  ikk-uart.o [3]
ikkUartSentLoopCheckEventHandler::bIsWaitingAck
                        0x2000ffaa      0x1  Data  Lc  ikk-uart.o [3]
ikkUartSentLoopCheckEventHandler::u16RecvTimeoutCounter
                        0x2000ff12      0x2  Data  Lc  ikk-uart.o [3]
ikkUartSentLoopCheckEventHandler::u8SendRetryCount
                        0x2000ffa8      0x1  Data  Lc  ikk-uart.o [3]
imageBlockResponseParse
                        0x000236b1    0x1aa  Code  Lc  ota-client.o [32]
imageNotifyParse        0x000231c5     0x96  Code  Lc  ota-client.o [32]
imageNotifyPayloadLengths
                        0x000394d8      0x4  Data  Lc  ota-client.o [32]
inRequest               0x2000ff50      0x1  Data  Lc  update-tc-link-key.o [45]
in_error_state          0x2000ff73      0x1  Data  Lc  sl_hfxo_manager_hal_s2.o [22]
indirectTimeoutMs       0x2000fbba      0x2  Data  Lc  indirect-queue.o [73]
initDone                0x2000ff58      0x1  Data  Lc  ota-storage-simple.o [36]
initDoneCallback        0x0001d97d     0x10  Code  Lc  lower-mac-rail-802.15.4.o [73]
initialOutgoingCost     0x2000ffe7      0x1  Data  Lc  neighbor.o [73]
initialize              0x00014321    0x156  Code  Lc  nvm3.o [62]
initializeChildStatus   0x00019d17     0x36  Code  Lc  child.o [73]
initializeEndpoint      0x00004bef     0x3e  Code  Lc  attribute-storage.o [46]
initializeNonceFromAuxFrame
                        0x0002aaa3     0x60  Code  Lc  crypto.o [73]
initializeNonceFromBuffer
                        0x0002ab03     0x52  Code  Lc  crypto.o [73]
initializeParentNwkInformation
                        0x00015143     0x36  Code  Gb  child-handling.o [73]
initializeRemoteNode    0x0000e94f     0x30  Code  Lc  binding-table.o [48]
initialized             0x2000ff84      0x1  Data  Lc  dmadrv.o [16]
insertNeighbor          0x0001b9df    0x168  Code  Lc  neighbor.o [73]
intActiveBits           0x0003a69c     0xf4  Data  Lc  diagnostic.o [14]
internalActiveScanCompleteHandler
                        0x00005811     0x10  Code  Lc  zigbee-scan.o [73]
internalStorage         0x00066000  0x58000  Data  Gb  cstartup-common.o [14]
interpanResponseHeader  0x2000aa68     0x18  Data  Lc  util.o [46]
irqState                0x2000b4e4      0x4  Data  Gb  nvm3_lock.o [29]
irqTriggered            0x0000bd2f     0x28  Code  Lc  sleep-efm32.o [14]
isHeapPointer           0x00007271      0xe  Code  Lc  buffer-management.o [73]
isInitialized           0x2000ff83      0x1  Data  Lc  btl_interface.o [18]
isItDeviceAnnouncePacket
                        0x000155c1     0x32  Code  Lc  network.o [73]
isItDeviceAnnouncePacket::deviceAnnouncePacketSignature
                        0x000155f4      0x8  Data  Lc  network.o [73]
isMultipleOfPageSize    0x000309a9     0x1a  Code  Lc  ota-storage-eeprom-page-erase.o [37]
isReceivingFrame        0x0001e1c9     0x16  Code  Lc  lower-mac-rail-802.15.4.o [73]
isValidEnrollmentMode   0x000258f1     0x12  Code  Lc  ias-zone-server.o [24]
is_entering_deepsleep   0x2000ff7d      0x1  Data  Lc  sl_power_manager_hal_s2.o [21]
is_hf_x_oscillator_already_started
                        0x2000ff7e      0x1  Data  Lc  sl_power_manager_hal_s2.o [21]
is_hf_x_oscillator_not_preserved
                        0x2000ff7b      0x1  Data  Lc  sl_power_manager.o [21]
is_hf_x_oscillator_used
                        0x2000ff7c      0x1  Data  Lc  sl_power_manager_hal_s2.o [21]
is_initialized          0x2000ff74      0x1  Data  Lc  sl_power_manager.o [21]
is_power_of_2           0x0000baa9     0x10  Code  Lc  sl_sleeptimer.o [16]
is_sleeptimer_initialized
                        0x2000ff85      0x1  Data  Lc  sl_sleeptimer.o [16]
is_states_saved         0x2000ff79      0x1  Data  Lc  sl_power_manager.o [21]
is_waiting_for_early_wakeup_restore
                        0x2000ff78      0x1  Data  Lc  sl_power_manager.o [21]
jitOrRetryTxBusy        0x2000fb6e      0x1  Data  Gb  retry.o [73]
joinAttemptFailed       0x00008067     0x6e  Code  Lc  association.o [73]
joinNetworkQuietly      0x0000846f     0x56  Code  Lc  association.o [73]
joinState               0x2000f7d8     0x14  Data  Gb  association.o [73]
judgeCheckZeroIsUsefullPoll
                        0x00034a99     0xc4  Code  Lc  ikk-relay.o [3]
judgeCheckZeroIsUsefullPoll::bStartRecordCountFlg
                        0x20009ebe      0x1  Data  Lc  ikk-relay.o [3]
judgeCheckZeroIsUsefullPoll::u32CheckZeroTimeoutCounter
                        0x2000ff10      0x2  Data  Lc  ikk-relay.o [3]
judgeCheckZeroIsUsefullPoll::u32LastCheckZeroCount
                        0x2000dec0      0x4  Data  Lc  ikk-relay.o [3]
judgeCheckZeroIsUsefullPoll::u8GetCheckZeroCounter
                        0x2000ffa7      0x1  Data  Lc  ikk-relay.o [3]
kAdcFindIndexById       0x00028c97     0x24  Code  Lc  ikk-adc.o [3]
kBatteryGetVoltageWithMsgSent
                        0x00028ccb     0x54  Code  Gb  ikk-adc.o [3]
kBatterySetToken        0x00028cc9      0x2  Code  Gb  ikk-adc.o [3]
kBtnModuleActionDetectCallback
                        0x000311c7    0x31e  Code  Gb  ikk-button.o [3]
kBtnModuleActionDetectCallback::bDclickDetectWaitStatus
                        0x2000d918      0x8  Data  Lc  ikk-button.o [3]
kBtnModuleActionDetectCallback::eBtnStatusBuf
                        0x2000d910      0x8  Data  Lc  ikk-button.o [3]
kBtnModuleActionDetectCallback::u64RecordTimeMS
                        0x2000a390      0x8  Data  Lc  ikk-button.o [3]
kBtnModuleActionIsGoing
                        0x0003113d     0x28  Code  Gb  ikk-button.o [3]
kBtnaIRQCallbackRecall  0x000311a5     0x22  Code  Gb  ikk-button.o [3]
kBtnaIRQCallbackRegister
                        0x00031165     0x40  Code  Gb  ikk-button.o [3]
kClustePeriodReportCheckIsSet
                        0x000108b1     0x28  Code  Lc  ikk-user.o [2]
kClusterExitFullDeviceTestCallback
                        0x00027b27     0x7e  Code  Gb  ikk-factory-test.o [4]
kCmdGetMsgCrc16Value    0x00028e0d     0x3a  Code  Gb  ikk-command.o [4]
kCmdMsgDataSent         0x00028ecf     0x42  Code  Gb  ikk-command.o [4]
kCmdMsgDataSentByPort   0x00028e4f     0x58  Code  Gb  ikk-command.o [4]
kConnectDelayReportEventControl
                        0x2000f5e8      0x8  Data  Gb  ikk-user.o [2]
kConnectDelayReportEventHandler
                        0x0000f059     0x22  Code  Gb  ikk-user.o [2]
kDelaySetLedStatusEventControl
                        0x2000f5e0      0x8  Data  Gb  ikk-user.o [2]
kDelaySetLedStatusEventHandler
                        0x00010865     0x3e  Code  Gb  ikk-user.o [2]
kFactoryTestBtnActionCallback
                        0x0002738b     0x9c  Code  Gb  ikk-factory-test.o [4]
kFactoryTestEventControl
                        0x2000d664      0x8  Data  Gb  ikk-factory-test.o [4]
kFactoryTestEventHandler
                        0x00027555    0x1f2  Code  Gb  ikk-factory-test.o [4]
kFactoryTestInit        0x00027427    0x10e  Code  Gb  ikk-factory-test.o [4]
kFilterVoltageSample    0x00028ad9    0x154  Code  Lc  ikk-adc.o [3]
kGetBatteryTriggerSet   0x00028d1f     0x28  Code  Gb  ikk-adc.o [3]
kGetBatteryVoltageEventControl
                        0x2000d87c      0x8  Data  Gb  ikk-adc.o [3]
kGetBatteryVoltageEventHandler
                        0x00028d4d     0x5e  Code  Gb  ikk-adc.o [3]
kGetFactoryTestStatus   0x000272f5      0x8  Code  Gb  ikk-factory-test.o [4]
kGetFactoryTestValueStatus
                        0x0002734f     0x3c  Code  Gb  ikk-factory-test.o [4]
kGetFullDeviceValue     0x00027345      0xa  Code  Gb  ikk-factory-test.o [4]
kGetMfgTokenUserData    0x00028fb1     0x34  Code  Gb  ikk-command.o [4]
kGetOTAStatus           0x000284e1      0x6  Code  Gb  ikk-ota.o [4]
kGetSingleBoardValue    0x00027319      0x8  Code  Gb  ikk-factory-test.o [4]
kGetVoltageValueById    0x000289bd    0x104  Code  Gb  ikk-adc.o [3]
kIasZoneSensorChangedStatusReport
                        0x00010951     0x54  Code  Gb  ikk-user.o [2]
kIsKonkeRemoteGateway   0x00011945     0x1e  Code  Gb  ikk-cluster.o [4]
kLedDriverhandler       0x0002865d    0x122  Code  Gb  ikk-led.o [3]
kLedGetLedIndexByID     0x00028639     0x24  Code  Lc  ikk-led.o [3]
kLedIsBlinking          0x00028857     0x20  Code  Gb  ikk-led.o [3]
kLedModuleActionDetectCallback
                        0x00028791     0xb2  Code  Gb  ikk-led.o [3]
kLedOptTrigger          0x00028877     0xdc  Code  Gb  ikk-led.o [3]
kLedOptTrigger::bFlg    0x2000dbe8      0x8  Data  Lc  ikk-led.o [3]
kMsgIASZoneStatusUpdate_Callback
                        0x000117c1      0x6  Code  Lc  ikk-cluster.o [4]
kNwkClusterBindingInspect
                        0x000240d3     0x56  Code  Gb  ikk-network.o [4]
kNwkClusterBindingObjIsOK
                        0x00023f7f     0x7c  Code  Gb  ikk-network.o [4]
kNwkClusterBindingObjSet
                        0x00023ffb     0xcc  Code  Lc  ikk-network.o [4]
kNwkClusterBindingTrigger
                        0x000241fb     0xf4  Code  Gb  ikk-network.o [4]
kNwkEnrollMethodTrigger
                        0x000243d1     0x70  Code  Gb  ikk-network.o [4]
kNwkFactoryReset        0x00023ed7     0xa8  Code  Gb  ikk-network.o [4]
kNwkGetCurrentStatus    0x00023db5     0x32  Code  Gb  ikk-network.o [4]
kNwkGetGateWayEui64     0x0002497f      0xa  Code  Gb  ikk-network.o [4]
kNwkGetGatewayEui64AddrSucc_Callback
                        0x00024129     0xd2  Code  Lc  ikk-network.o [4]
kNwkJoiningStart        0x000245c5     0xcc  Code  Gb  ikk-network.o [4]
kNwkModuleActionDetectCallback
                        0x00023b05    0x1fc  Code  Gb  ikk-network.o [4]
kNwkModuleActionDetectCallback::count
                        0x2000ff9d      0x1  Data  Lc  ikk-network.o [4]
kNwkModuleActionDetectCallback::times
                        0x2000ff9e      0x1  Data  Lc  ikk-network.o [4]
kNwkModuleActionDetectCallback::ucRestoreSteeringCount
                        0x2000ff9c      0x1  Data  Lc  ikk-network.o [4]
kNwkModuleInit          0x00024849     0xe8  Code  Gb  ikk-network.o [4]
kNwkNetworkButtonAcitonCallback
                        0x00023ded     0xea  Code  Gb  ikk-network.o [4]
kNwkNetworkStatusIndicator
                        0x00023d01     0x2e  Code  Lc  ikk-network.o [4]
kNwkNetworkStatusNotifyCall
                        0x00023d2f     0x86  Code  Lc  ikk-network.o [4]
kNwkRejoinProcedureEventControl
                        0x2000d764      0x8  Data  Gb  ikk-network.o [4]
kNwkRejoinProcedureEventHandler
                        0x000242f7     0x26  Code  Gb  ikk-network.o [4]
kNwkScheduleTaskEventControl
                        0x2000d724     0x20  Data  Gb  ikk-network.o [4]
kNwkScheduleTaskEventHandler
                        0x0002469d     0x5e  Code  Gb  ikk-network.o [4]
kNwkScheduleTaskRegister
                        0x000247b1     0x78  Code  Gb  ikk-network.o [4]
kNwkScheduleTaskStart   0x00024707     0x42  Code  Gb  ikk-network.o [4]
kNwkScheduleTaskStop    0x00024751     0x42  Code  Gb  ikk-network.o [4]
kNwkSetGateWayEui64     0x00024973      0xc  Code  Gb  ikk-network.o [4]
kNwkSteeringStart       0x000245b5     0x10  Code  Gb  ikk-network.o [4]
kNwkgetNodeIdFromFlash  0x00024999     0x1c  Code  Gb  ikk-network.o [4]
kNwksaveNodeIdToFlash   0x00024989     0x10  Code  Gb  ikk-network.o [4]
kOTAMoudleCallback      0x000284f9     0xf2  Code  Gb  ikk-ota.o [4]
kOTAMoudleInit          0x000284ed      0xa  Code  Gb  ikk-ota.o [4]
kOTAMoudleOptCallback::flg
                        0x2000ffa2      0x1  Data  Lc  ikk-ota.o [4]
kOTAMoudleUserCallback  0x0000f10d     0xde  Code  Gb  ikk-user.o [2]
kOTAMoudleUserCallback::flg
                        0x2000ffc5      0x1  Data  Lc  ikk-user.o [2]
kOptTunneCheckNodeIdIsChangedReport
                        0x000268e9     0x48  Code  Gb  ikk-opt-tunnel.o [4]
kOptTunnelAttrChunkLocalRead
                        0x00026a17     0x50  Code  Gb  ikk-opt-tunnel.o [4]
kOptTunnelChunkRead     0x00026f85     0x94  Code  Gb  ikk-opt-tunnel.o [4]
kOptTunnelCommonReport  0x00026ae9     0xbe  Code  Gb  ikk-opt-tunnel.o [4]
kOptTunnelCommonReportSend
                        0x00026a73     0x76  Code  Lc  ikk-opt-tunnel.o [4]
kOptTunnelMessageIncoming
                        0x00026c87    0x26e  Code  Gb  ikk-opt-tunnel.o [4]
kOptTunnelMessageResponse
                        0x00026bdd     0x9c  Code  Gb  ikk-opt-tunnel.o [4]
kOptTunnelModuleInit    0x00026f7b      0xa  Code  Gb  ikk-opt-tunnel.o [4]
kOptTunnelMtoRRDelayRspEventControl
                        0x2000d79c      0x8  Data  Gb  ikk-opt-tunnel.o [4]
kOptTunnelMtoRRDelayRspEventHandler
                        0x00026baf     0x28  Code  Gb  ikk-opt-tunnel.o [4]
kOptTunnelOODReport     0x00026f3d     0x3e  Code  Gb  ikk-opt-tunnel.o [4]
kOptTunnelReadInstallCode
                        0x00026931     0xe6  Code  Gb  ikk-opt-tunnel.o [4]
kOptTunnelReportingPlagiarizeOriginal
                        0x000115e5     0x6c  Code  Gb  ikk-cluster.o [4]
kOptTunnelTrytoWriteInstallCode
                        0x00027043    0x182  Code  Gb  ikk-opt-tunnel.o [4]
kP824mReset             0x000293a1     0x36  Code  Gb  ikk-p824m.o [2]
kPwmDriverhandler       0x00031ac1     0x60  Code  Gb  ikk-pwm.o [3]
kPwmGetIndexByID        0x00031a9b     0x24  Code  Gb  ikk-pwm.o [3]
kPwmGradientChangeEventControl
                        0x2000dc68      0x8  Data  Gb  ikk-pwm.o [3]
kRelayChannelControl    0x00034a3f     0x58  Code  Lc  ikk-relay.o [3]
kRelayGetChannelIndexByID
                        0x000349d1     0x24  Code  Lc  ikk-relay.o [3]
kRelayModuleActionDetectCallback
                        0x00034a97      0x2  Code  Gb  ikk-relay.o [3]
kRelayUserCallback      0x000349f5     0x4a  Code  Gb  ikk-relay.o [3]
kRttModuleInit          0x00026621     0x38  Code  Gb  ikk-rtt.o [5]
kRttMsgSent             0x000267f9     0x60  Code  Gb  ikk-rtt.o [5]
kSetAgingTestValue      0x000272fd      0xc  Code  Gb  ikk-factory-test.o [4]
kSetFirstJionFlgEventControl
                        0x2000f5f0      0x8  Data  Gb  ikk-user.o [2]
kSetFirstJionFlgEventHandler
                        0x0000efcb     0x24  Code  Gb  ikk-user.o [2]
kSetFullDeviceValue     0x00027339      0xc  Code  Gb  ikk-factory-test.o [4]
kSetIndicatorNotDisturbModeFlg
                        0x0000ef0d     0x10  Code  Gb  ikk-user.o [2]
kSetMfgTokenUserData    0x00028fe5    0x15e  Code  Gb  ikk-command.o [4]
kSetOTAStatus           0x000284e7      0x6  Code  Gb  ikk-ota.o [4]
kSetSingleBoardValue    0x00027309      0xa  Code  Gb  ikk-factory-test.o [4]
kSystemSetupStatusSet   0x000108d9      0xe  Code  Lc  ikk-user.o [2]
kTickEventControl       0x2000d7a8      0x8  Data  Gb  ikk-tick-handler.o [4]
kTickEventHandler       0x000310f1     0x26  Code  Gb  ikk-tick-handler.o [4]
kTickRunnningTrigger    0x00031117      0xe  Code  Gb  ikk-tick-handler.o [4]
kTimerIRQn              0x200099d0      0x4  Data  Gb  ikk-timer.o [3]
kTimerInit              0x00037f4d     0xbc  Code  Gb  ikk-timer.o [3]
kTimerIsGoing           0x0003806f      0xa  Code  Gb  ikk-timer.o [3]
kTimerStart             0x00038053     0x1c  Code  Gb  ikk-timer.o [3]
kUartModuleInit         0x00027c49     0x54  Code  Gb  ikk-uart.o [3]
kUartMsgSent            0x00028121     0x48  Code  Gb  ikk-uart.o [3]
kUserFactorTestPollCallback
                        0x0000f081     0x86  Code  Gb  ikk-user.o [2]
kUserJoinSucceedProcedureEventControl
                        0x2000d76c      0x8  Data  Gb  ikk-network.o [4]
kUserJoinSucceedProcedureEventHandler
                        0x000249c5     0x8a  Code  Gb  ikk-network.o [4]
kUserNetworkExitCompleteCallback
                        0x0000f1fd      0x4  Code  Gb  ikk-user.o [2]
kUserNetworkStatusNotify
                        0x0000ede5     0x8c  Code  Gb  ikk-user.o [2]
kUserNetworkStopTaskCallback
                        0x000108ed     0x50  Code  Lc  ikk-user.o [2]
kUserOODMessageIncoming
                        0x00010449    0x164  Code  Gb  ikk-user.o [2]
kUserRttMsgInComingPaser
                        0x0000f21d    0x44a  Code  Gb  ikk-user.o [2]
kUserScheduleTaskHandlerCallback
                        0x0000ef1d     0x60  Code  Gb  ikk-user.o [2]
kUserUartMsgInComingPaser
                        0x000102bd    0x168  Code  Gb  ikk-user.o [2]
kUtilsCheckDataSetContext
                        0x000295f3     0x1c  Code  Gb  ikk-common-utils.o [4]
kUtilsGetAverage        0x00029655     0x96  Code  Gb  ikk-common-utils.o [4]
kUtilsGetRandNum        0x0002958b     0x68  Code  Gb  ikk-common-utils.o [4]
kUtilsGetRandNum::s_counter
                        0x2000d650      0x4  Data  Lc  ikk-common-utils.o [4]
kUtilsIsValidEui64Addr  0x0002960f     0x14  Code  Gb  ikk-common-utils.o [4]
kUtilsOct2Value         0x00029507     0x84  Code  Gb  ikk-common-utils.o [4]
kUtilsReverseArrayU8int
                        0x00029623     0x32  Code  Gb  ikk-common-utils.o [4]
kUtilsReverseArrayU8int::s_image_data
                        0x2000d654     0x10  Data  Lc  ikk-common-utils.o [4]
kZclClusterGetPermitReportInfo
                        0x00011a3f     0x48  Code  Gb  ikk-cluster.o [4]
kZclClusterHeartbeatControl
                        0x00011963     0x54  Code  Gb  ikk-cluster.o [4]
kZclClusterPermitReportTableInit
                        0x000119b7     0x54  Code  Gb  ikk-cluster.o [4]
kZclClusterPermitTableIndexGetByClusterAndEp
                        0x00011a13     0x2c  Code  Lc  ikk-cluster.o [4]
kZclClusterReportChangeCallback
                        0x0000ef89     0x42  Code  Gb  ikk-user.o [2]
kZclClusterSetPermitReportInfo
                        0x00011a93     0xac  Code  Gb  ikk-cluster.o [4]
kZclIASZoneStatusUpdate
                        0x000117c7     0x92  Code  Gb  ikk-cluster.o [4]
kZclIASZoneStatusUpdate::s_endpoint
                        0x2000ff8f      0x1  Data  Lc  ikk-cluster.o [4]
kZclIASZoneStatusUpdate::s_status
                        0x2000ff90      0x1  Data  Lc  ikk-cluster.o [4]
kclock                  0x200099ac      0x4  Data  Gb  ikk-pwm.o [3]
keyCount                0x2000f8e2      0x2  Data  Lc  aps-keys-transient.o [73]
keyDataCopy             0x2000f888     0x10  Data  Lc  aps-security.o [73]
kkClusterGetReportingPeriod
                        0x00011859     0x52  Code  Gb  ikk-cluster.o [4]
kkDelaySendMfgMsgEventControl
                        0x2000f610      0x8  Data  Gb  ikk-user.o [2]
kkDelaySendMfgMsgEventHandler
                        0x00010155    0x146  Code  Gb  ikk-user.o [2]
kkFactoryMsgInComingCallBack
                        0x0002775d    0x35e  Code  Gb  ikk-factory-test.o [4]
kkGetBatteryPowerPercent
                        0x00028c2d     0x6a  Code  Gb  ikk-adc.o [3]
kkIasEnrollRequestPlagiarizeOriginal
                        0x00024329     0xa8  Code  Gb  ikk-network.o [4]
kkMfglibRunningStart    0x0000f201     0x16  Code  Gb  ikk-user.o [2]
kkMfglibRxHandler       0x0000fd95    0x22e  Code  Lc  ikk-user.o [2]
kkMfglibSendBindMsg     0x0000f701    0x502  Code  Gb  ikk-user.o [2]
kkMfglibSendBindMsg::sendSeq
                        0x2000ff1c      0x2  Data  Lc  ikk-user.o [2]
kkMfglibStartEventControl
                        0x2000f5f8      0x8  Data  Gb  ikk-user.o [2]
kkMfglibStartEventHandler
                        0x0000ffe7     0x60  Code  Gb  ikk-user.o [2]
kkMfglibStopEventControl
                        0x2000f608      0x8  Data  Gb  ikk-user.o [2]
kkMfglibStopEventHandler
                        0x00010101     0x34  Code  Gb  ikk-user.o [2]
kkMfglibWaitReceiveEventControl
                        0x2000f600      0x8  Data  Gb  ikk-user.o [2]
kkMfglibWaitReceiveEventHandler
                        0x00010055     0xa0  Code  Gb  ikk-user.o [2]
kkMfglibWaitReceiveEventHandler::firstScanFlg
                        0x2000ffc6      0x1  Data  Lc  ikk-user.o [2]
kkMfglibWaitReceiveEventHandler::lastTimeMS
                        0x2000f638      0x4  Data  Lc  ikk-user.o [2]
kkSystemSetUpEventControl
                        0x2000f5d8      0x8  Data  Gb  ikk-user.o [2]
kkSystemSetUpEventHandler
                        0x000105b5    0x27c  Code  Gb  ikk-user.o [2]
ktimer                  0x2000999c     0x10  Data  Gb  ikk-pwm.o [3]
lastAgingTime           0x2000ff36      0x2  Data  Lc  broadcast.o [73]
lastAgingTimeQs         0x2000ff3a      0x2  Data  Lc  route-table.o [73]
lastEui64_0000          0x20009a54      0x8  Data  Lc  ikk-user.o [2]
lastEui64_0002          0x20009a5c      0x8  Data  Lc  ikk-user.o [2]
lastEui64_000a          0x20009a64      0x8  Data  Lc  ikk-user.o [2]
lastEui64_000b          0x20009a6c      0x8  Data  Lc  ikk-user.o [2]
lastEui64_ed00          0x20009a44      0x8  Data  Lc  ikk-user.o [2]
lastEui64_ed04          0x20009a4c      0x8  Data  Lc  ikk-user.o [2]
lastEventTimeMS         0x2000fbb4      0x2  Data  Lc  indirect-queue.o [73]
lastEventTimeMs         0x2000f974      0x2  Data  Lc  aps-retry.o [73]
lastPanId               0x2000ff18      0x2  Data  Lc  ikk-user.o [2]
lastRecordedByteMaskIndex
                        0x2000991c      0x4  Data  Lc  ota-storage-eeprom-page-erase.o [37]
lastRecordedByteMaskIndexKnown
                        0x2000ff54      0x1  Data  Lc  ota-storage-eeprom-page-erase.o [37]
lastRejoinStartTime     0x2000f98c      0x4  Data  Lc  network.o [73]
lastReportTimeMin       0x2000fbf5      0x1  Data  Lc  zdo-channel.o [73]
lastRxWithAckTime       0x2000a3d0      0x4  Data  Lc  lower-mac-rail-802.15.4.o [73]
last_delta_update_count
                        0x2000ba88      0x4  Data  Lc  sl_sleeptimer.o [16]
leaveReason             0x2000f8bc      0x1  Data  Lc  leave.o [73]
libraryEnabled          0x20009ef9      0x1  Data  Lc  packet-validate.o [68]
libraryInfo             0x0002d730     0x54  Data  Lc  ember-library.o [73]
lockBitsInMainFlashSpace
                        0x000be000   0x2000  Data  Gb  mfg-token.o [14]
longIndirectPool        0x2000fbb6      0x2  Data  Lc  indirect-queue.o [73]
lowCallback             0x2000baec      0x4  Data  Lc  tempdrv.o [16]
m2p                     0x00039ad8     0x10  Data  Gb  dmadrv.o [16]
macCommandPacketIsValid
                        0x0002c2eb     0x58  Code  Lc  packet-validate.o [68]
macCommandSizes         0x0002c548      0xc  Data  Lc  packet-validate.o [68]
macIsInactive           0x2000fbf4      0x1  Data  Lc  zdo-channel.o [73]
macOnlyCounters         0x0000d4b0      0x8  Data  Lc  ember-stack-common.o [73]
macRetries              0x2000a3b0      0x1  Data  Lc  lower-mac-rail-802.15.4.o [73]
mac_outgoing_sequence_number
                        0x2000ffe6      0x1  Data  Lc  upper-mac.o [73]
mac_prepare_for_scan    0x00009d7b     0xcc  Code  Lc  scan.o [73]
mac_really_kickstart    0x0000ae5b    0x138  Code  Lc  upper-mac.o [73]
mac_shutdown_scan_start
                        0x00009e49     0x24  Code  Lc  scan.o [73]
magicId                 0x2000f634      0x4  Data  Gb  ikk-user.o [2]
magicNumberBytes        0x0003948c      0x4  Data  Lc  ota-storage-simple.o [36]
main                    0x00038805     0x16  Code  Gb  simple-main.o [43]
markers                 0x000187f0     0x60  Data  Lc  zigbee-stack.o [73]
matchingPoolAddress     0x0001b32d     0x60  Code  Lc  indirect-queue.o [73]
maxBeaconsToStore       0x2000fb51      0x1  Data  Gb  beacon-handling.o [73]
max_millisecond_conversion
                        0x2000ba8c      0x4  Data  Lc  sl_sleeptimer.o [16]
maybeCallNextHandler    0x00004665     0x4a  Code  Lc  scan-dispatch.o [40]
maybeSendAddressResponse
                        0x000171cd    0x196  Code  Lc  zigbee-device-util.o [73]
mbedtls_aes_crypt_ecb   0x00033d77     0xb0  Code  Gb  se_aes.o [27]
mbedtls_aes_init        0x00033d41      0x6  Code  Gb  se_aes.o [27]
mbedtls_aes_setkey_enc  0x00033d47     0x30  Code  Gb  se_aes.o [27]
messageSentCallbacks    0x2000a54c    0x200  Data  Lc  af-main-common.o [46]
mfgSpecificId           0x2000fefe      0x2  Data  Gb  zcl-cli.o [46]
mfglibEnd               0x00029275     0x3c  Code  Gb  mfglib.o [65]
mfglibGetChannel        0x00029345      0x6  Code  Gb  mfglib.o [65]
mfglibSendPacket        0x000292b9     0x62  Code  Gb  mfglib.o [65]
mfglibSetChannel        0x0002931b     0x2a  Code  Gb  mfglib.o [65]
mfglibSetPower          0x0002934b     0x34  Code  Gb  mfglib.o [65]
mfglibShutdownCompleteCallback
                        0x00029249     0x2c  Code  Gb  mfglib.o [65]
mfglibStart             0x00029221     0x28  Code  Gb  mfglib.o [65]
minBlockRequestPeriod   0x2000ff04      0x2  Data  Lc  ota-client.o [32]
minRejoinPeriodMillisec
                        0x20009ea0      0x2  Data  Lc  aps-security.o [73]
minTicks                0x2000bb1c      0x4  Data  Lc  ustimer.o [16]
miscInternalFlags       0x2000a3bc      0x2  Data  Lc  lower-mac-rail-802.15.4.o [73]
moveToNewLocation       0x000073c3     0x22  Code  Lc  buffer-management.o [73]
mpu_fault_handler       0x00034209           Code  Gb  faults-v7m.o [14]
mscStatusWait           0x20009469     0x3c  Code  Gb  em_msc.o [17]
mtorFlags               0x0002d688      0x8  Data  Lc  zigbee-device.o [73]
multiNetworkCounterTable
                        0x0003ab48     0x14  Data  Lc  counters-soc.o [11]
myEndpoint              0x20009eb6      0x1  Data  Lc  ota-client.o [32]
nameStrings             0x0003a790     0xcc  Data  Lc  diagnostic.o [14]
networkCommandBaseSizes
                        0x0002c554     0x10  Data  Lc  packet-validate.o [68]
networkCommandPacketIsValid
                        0x0002c399     0x9c  Code  Lc  packet-validate.o [68]
networkCount            0x2000ff82      0x1  Data  Lc  form-and-join.o [19]
networkDecrypt          0x00015a3f    0x1ba  Code  Lc  network.o [73]
networkFoundCallback    0x000253cb     0x98  Code  Lc  network-steering.o [28]
networkInitData         0x2000f7f8      0x2  Data  Lc  association.o [73]
networkKeyTimeoutMs     0x20009af8      0x4  Data  Lc  association.o [73]
networkPacketIsValid    0x0002c343     0x56  Code  Lc  packet-validate.o [68]
networkScanProcedure    0x2000f8e8      0x1  Data  Lc  zigbee-scan.o [73]
networkSubmitUnicast    0x00015935     0x82  Code  Lc  network.o [73]
newChannel              0x2000ffda      0x1  Data  Lc  association.o [73]
newDeviceHandler        0x0001c3f5     0xd6  Code  Lc  trust-center-util.o [73]
newEraseOperation       0x2000ff55      0x1  Data  Lc  ota-storage-eeprom-page-erase.o [37]
newNwkUpdateId          0x2000fbf1      0x1  Data  Lc  zdo-channel.o [73]
nextApsFrameCounter     0x2000fc1c      0x4  Data  Lc  aps-encryption.o [73]
nextBeaconIsEnhanced    0x2000fb60      0x1  Data  Gb  beacon-handling.o [73]
nextBuffer              0x000072b9     0x26  Code  Lc  buffer-management.o [73]
nextEventTimer          0x2000aea0      0x4  Data  Lc  ota-client.o [32]
nextIndex               0x2000ffd6      0x1  Data  Lc  security-address-cache.o [1]
next_timer_to_expire_is_power_manager
                        0x2000ff86      0x1  Data  Lc  sl_sleeptimer.o [16]
nodeThatToldUsToLeave   0x20009ea2      0x2  Data  Lc  leave.o [73]
noteDiscoveryTimeout    0x0002a1b9     0x70  Code  Lc  route-table.o [73]
notePreconfiguredKeyType
                        0x00019ae3     0x20  Code  Lc  aps-security.o [73]
noteUse                 0x000072df     0x7a  Code  Lc  buffer-management.o [73]
notifyTrustCenter       0x000181f9     0x28  Code  Lc  leave.o [73]
nullCallback            0x2000bae0      0x8  Data  Lc  tempdrv.o [16]
nullEui                 0x0003a868      0x8  Data  Lc  mfg-token.o [14]
nvm3Storage             0x00056000  0x10000  Data  Gb  nvm3_default.o [30]
nvm3_cacheClear         0x00029d07     0x1e  Code  Gb  nvm3_cache.o [62]
nvm3_cacheDelete        0x00029d25     0x2c  Code  Gb  nvm3_cache.o [62]
nvm3_cacheGet           0x00029d51     0x3e  Code  Gb  nvm3_cache.o [62]
nvm3_cacheOpen          0x00029d03      0x4  Code  Gb  nvm3_cache.o [62]
nvm3_cacheScan          0x00029eaf     0x48  Code  Gb  nvm3_cache.o [62]
nvm3_cacheSet           0x00029d91    0x11e  Code  Gb  nvm3_cache.o [62]
nvm3_defaultHandle      0x20009920      0x4  Data  Gb  nvm3_default.o [30]
nvm3_defaultHandleData  0x2000a0f8     0x50  Data  Gb  nvm3_default.o [30]
nvm3_defaultInit        0x20009940      0x4  Data  Gb  nvm3_default.o [30]
nvm3_defaultInitData    0x20009924     0x1c  Data  Gb  nvm3_default.o [30]
nvm3_deleteObject       0x00014951     0x56  Code  Gb  nvm3.o [62]
nvm3_getObjectInfo      0x000148c7     0x72  Code  Gb  nvm3.o [62]
nvm3_halFlashAccess     0x000386d7      0x2  Code  Lc  nvm3_hal_flash.o [30]
nvm3_halFlashClose      0x000386a3      0x4  Code  Lc  nvm3_hal_flash.o [30]
nvm3_halFlashGetInfo    0x000386a7     0x30  Code  Lc  nvm3_hal_flash.o [30]
nvm3_halFlashHandle     0x000394f8     0x1c  Data  Gb  nvm3_hal_flash.o [30]
nvm3_halFlashOpen       0x00038699      0xa  Code  Lc  nvm3_hal_flash.o [30]
nvm3_halFlashPageErase  0x00038733     0x38  Code  Lc  nvm3_hal_flash.o [30]
nvm3_halFlashReadWords  0x000386d9     0x32  Code  Lc  nvm3_hal_flash.o [30]
nvm3_halFlashWriteWords
                        0x0003870b     0x28  Code  Lc  nvm3_hal_flash.o [30]
nvm3_incrementCounter   0x00014841     0x68  Code  Gb  nvm3.o [62]
nvm3_internalObjectHandleA
                        0x2000b4e8     0x2c  Data  Gb  nvm3_lock.o [29]
nvm3_internalObjectHandleB
                        0x2000b514     0x2c  Data  Gb  nvm3_lock.o [29]
nvm3_internalObjectHandleC
                        0x2000b540     0x2c  Data  Gb  nvm3_lock.o [29]
nvm3_internalObjectHandleD
                        0x2000b56c     0x2c  Data  Gb  nvm3_lock.o [29]
nvm3_lockBegin          0x00029f35     0x10  Code  Wk  nvm3_lock.o [29]
nvm3_lockDisableExecute
                        0x00029f51      0x2  Code  Gb  nvm3_lock.o [29]
nvm3_lockEnd            0x00029f45      0xc  Code  Wk  nvm3_lock.o [29]
nvm3_maxFragmentCount   0x0003fefe      0x1  Data  Gb  nvm3_lock.o [29]
nvm3_objGroupToType     0x00029c79     0x18  Code  Gb  nvm3_object.o [62]
nvm3_objHandleSize      0x00039514      0x4  Data  Gb  nvm3_lock.o [29]
nvm3_objHdrGetDatLen    0x00029c1b     0x24  Code  Gb  nvm3_object.o [62]
nvm3_objHdrGetErased    0x00029bdb     0x10  Code  Gb  nvm3_object.o [62]
nvm3_objHdrGetFragTyp   0x00029beb     0x16  Code  Gb  nvm3_object.o [62]
nvm3_objHdrGetHdrIsLarge
                        0x00029c09      0x2  Code  Gb  nvm3_object.o [62]
nvm3_objHdrGetHdrLen    0x00029c0b     0x10  Code  Gb  nvm3_object.o [62]
nvm3_objHdrGetKey       0x00029c01      0x8  Code  Gb  nvm3_object.o [62]
nvm3_objHdrGetType      0x00029c3f      0x8  Code  Gb  nvm3_object.o [62]
nvm3_objHdrInit         0x00029b0b     0x70  Code  Gb  nvm3_object.o [62]
nvm3_objHdrValidateLarge
                        0x00029baf     0x22  Code  Gb  nvm3_object.o [62]
nvm3_objHdrValidateSmall
                        0x00029b7b     0x20  Code  Gb  nvm3_object.o [62]
nvm3_objInit            0x00029c47     0x28  Code  Gb  nvm3_object.o [62]
nvm3_objTypeToGroup     0x00029c91     0x22  Code  Gb  nvm3_object.o [62]
nvm3_open               0x000144bf    0x184  Code  Gb  nvm3.o [62]
nvm3_pageErase          0x00029ac3     0x34  Code  Gb  nvm3_page.o [62]
nvm3_pageGetEraseCnt    0x000299ff     0x50  Code  Gb  nvm3_page.o [62]
nvm3_pageGetFirstObj    0x00029abf      0x4  Code  Gb  nvm3_page.o [62]
nvm3_pageGetState       0x00029a4f     0x50  Code  Gb  nvm3_page.o [62]
nvm3_pageHeaderWrite    0x000298f1     0x9c  Code  Gb  nvm3_page.o [62]
nvm3_pageSetBad         0x0002999b     0x1e  Code  Gb  nvm3_page.o [62]
nvm3_pageSetEip         0x000299b9     0x3a  Code  Gb  nvm3_page.o [62]
nvm3_pageStateIsGood    0x00029a9f     0x10  Code  Gb  nvm3_page.o [62]
nvm3_pageStateIsInvalid
                        0x00029aaf     0x10  Code  Gb  nvm3_page.o [62]
nvm3_readCounter        0x000147d9     0x52  Code  Gb  nvm3.o [62]
nvm3_readData           0x000146c3     0x7a  Code  Gb  nvm3.o [62]
nvm3_utilsComputeBergerCode
                        0x00029ef7     0x3e  Code  Gb  nvm3_utils.o [62]
nvm3_writeCounter       0x0001474f     0x82  Code  Gb  nvm3.o [62]
nvm3_writeData          0x00014643     0x80  Code  Gb  nvm3.o [62]
nwkRssi                 0x2000d54c    0x104  Data  Lc  ikk-common-utils.o [4]
nwkSequenceNumber       0x2000ffdd      0x1  Data  Lc  application-support.o [73]
oldCheckCca             0x2000ffe4      0x1  Data  Lc  mfglib.o [65]
old_csma_tries          0x2000a3b2      0x1  Data  Lc  lower-mac-rail-802.15.4.o [73]
onPtaGrantTx            0x0001e141     0x2a  Code  Lc  lower-mac-rail-802.15.4.o [73]
onPtaStackEvent         0x0001cf1f     0x3e  Code  Lc  lower-mac-rail-802.15.4.o [73]
on_clock_wakeup_timeout
                        0x00021b0d     0x4c  Code  Lc  sl_power_manager.o [21]
oneScanDone             0x2000fbf6      0x1  Data  Lc  zdo-channel.o [73]
orphanScanCompleteHandler
                        0x000057bd     0x12  Code  Lc  zigbee-scan.o [73]
orphan_scan_request_callback
                        0x000057a3     0x1a  Code  Lc  zigbee-scan.o [73]
otaClientTick           0x00022d51     0x88  Code  Lc  ota-client.o [32]
otaStorageEepromGetImageInfoStartAddress
                        0x00030de3      0x4  Code  Gb  ota-storage-eeprom.o [37]
otaStorageEepromGetStorageEndAddress
                        0x00030ddd      0x6  Code  Gb  ota-storage-eeprom.o [37]
otaStorageEepromGetStorageStartAddress
                        0x00030dd7      0x6  Code  Gb  ota-storage-eeprom.o [37]
overflow_counter        0x2000ff0c      0x2  Data  Lc  sl_sleeptimer.o [16]
p2m                     0x00039ae8     0x10  Data  Gb  dmadrv.o [16]
paInit2p4               0x0003a884      0x8  Data  Lc  micro.o [14]
packetChecks            0x0002c580     0x30  Data  Lc  packet-validate.o [68]
packetReceivedCallback  0x0001d67d    0x2ac  Code  Lc  lower-mac-rail-802.15.4.o [73]
packetSentCallback      0x0001d575     0x6c  Code  Lc  lower-mac-rail-802.15.4.o [73]
pageAdrFromIdx          0x00012e03      0xa  Code  Lc  nvm3.o [62]
pageEraseStatus         0x20009ebb      0x1  Data  Lc  eeprom.o [13]
pageFreeSize            0x00012e65      0xa  Code  Lc  nvm3.o [62]
pageHdrCounterMake      0x000298c1     0x30  Code  Lc  nvm3_page.o [62]
pageHdrGetCounterVal    0x000298b5      0xc  Code  Lc  nvm3_page.o [62]
pageIdxFromAdr          0x00012e0d      0xc  Code  Lc  nvm3.o [62]
pagesRepack             0x00012d71     0x1a  Code  Lc  nvm3.o [62]
panConflictMeters       0x2000ffcd      0x1  Data  Gb  ember-configuration.o [1]
parentClassificationAlgorithm
                        0x0000a9c5     0x88  Code  Lc  beacon-handling.o [73]
pclkDivOptimize         0x00012bf9     0x1e  Code  Lc  em_cmu.o [17]
pendingAckedCount       0x2000f968      0x1  Data  Lc  aps-retry.o [73]
pendingNwkUpdateChannel
                        0x20009ef8      0x1  Data  Gb  zdo-channel.o [73]
pendingNwkUpdatePanId   0x20009ea6      0x2  Data  Lc  management.o [73]
phyToMacQueue           0x2000f7a6      0x2  Data  Lc  buffer-management.o [73]
pkdettusstartupi_saved  0x2000b614      0x4  Data  Lc  sl_hfxo_manager_hal_s2.o [22]
pollQueueHead           0x2000ff3c      0x1  Data  Lc  multi-network.o [73]
power_manager_em_transition_event_list
                        0x2000b630      0x4  Data  Lc  sl_power_manager.o [21]
power_manager_notify_em_transition
                        0x00021a31     0x62  Code  Lc  sl_power_manager.o [21]
powers10                0x00039b50     0x24  Data  Lc  ember-printf.o [15]
prepareForResponse      0x00005edb     0x62  Code  Lc  util.o [46]
previousCharacter       0x2000ffca      0x1  Data  Lc  command-interpreter2.o [1]
printCommandUsage       0x0001f941     0xd2  Code  Lc  command-interpreter2.o [1]
printDiscoverCommandsResponse
                        0x0000d595     0x10  Code  Lc  process-global-message.o [46]
printPercentage         0x00030849     0x54  Code  Lc  ota-common.o [34]
printPercentage::imageSize
                        0x2000ae88      0x4  Data  Lc  ota-common.o [34]
printPercentage::oldPercentageComplete
                        0x20009eb5      0x1  Data  Lc  ota-common.o [34]
printPercentage::percentageComplete
                        0x2000ff59      0x1  Data  Lc  ota-common.o [34]
printPercentage::startingOffset
                        0x2000ae84      0x4  Data  Lc  ota-common.o [34]
printedMaxPanIdsWarning
                        0x2000ff65      0x1  Data  Lc  network-steering.o [28]
processAddressResponse  0x00024fe7     0x4c  Code  Lc  service-discovery-common.o [46]
processDeviceAnnounceAndFindIdConflict
                        0x00016583     0xbe  Code  Lc  network.o [73]
processKeyCommand       0x00019725    0x308  Code  Lc  aps-security.o [73]
processScanRequest      0x00032245    0x13a  Code  Lc  zdo-channel.o [73]
processSimpleDescriptorResponse
                        0x00024f15     0xd2  Code  Lc  service-discovery-common.o [46]
processZigbeePacket     0x00015d99    0x650  Code  Lc  network.o [73]
process_timer_irq       0x0000b851     0xf4  Code  Gb  sl_sleeptimer.o [16]
process_wakeup_overhead_tick
                        0x2000b65c      0x4  Data  Lc  sl_power_manager_hal_s2.o [21]
prsRxInput              0x0003034d     0x30  Code  Lc  em_usart.o [17]
ptaGntEventReported     0x2000a3b3      0x1  Data  Lc  lower-mac-rail-802.15.4.o [73]
pumpRx                  0x00021c6b     0x82  Code  Lc  com.o [41]
purgeBeaconsAfterJoinSuccess
                        0x2000f7ec      0x1  Data  Lc  association.o [73]
pushEui64               0x0001a8a9     0x10  Code  Lc  zigbee-packet-header.o [73]
pushInt16u              0x0001a89f      0xa  Code  Lc  zigbee-packet-header.o [73]
putImageInfoInMessage   0x00023055     0x1c  Code  Lc  ota-client.o [32]
queryNextImage          0x000234a1     0x64  Code  Lc  ota-client.o [32]
queryNextImageResponseParse
                        0x00023267    0x118  Code  Lc  ota-client.o [32]
quietlyEraseChild       0x0001a2af     0x74  Code  Lc  child.o [73]
radioIdle               0x0001ddc7     0xa6  Code  Lc  lower-mac-rail-802.15.4.o [73]
radioPowerFem           0x0001df31     0x26  Code  Lc  lower-mac-rail-802.15.4.o [73]
radioPowerFem::femPowered
                        0x2000ffde      0x1  Data  Lc  lower-mac-rail-802.15.4.o [73]
radioSchedulerPriorityTable
                        0x20009bd8      0x4  Data  Lc  lower-mac-rail-802.15.4.o [73]
radioSetRx              0x0001dccb     0x50  Code  Lc  lower-mac-rail-802.15.4.o [73]
radioSetTx              0x0001dd21     0xa6  Code  Lc  lower-mac-rail-802.15.4.o [73]
radioTransmitConfig     0x20009afc      0x8  Data  Gb  zigbee-stack.o [73]
radio_shutdown          0x000056a9     0x10  Code  Lc  zigbee-scan.o [73]
railCallbackHandler     0x0001dab1    0x1fe  Code  Lc  lower-mac-rail-802.15.4.o [73]
railCfg                 0x20009bec    0x1a4  Data  Lc  lower-mac-rail-802.15.4.o [73]
railSchedState          0x2000f81c     0x68  Data  Lc  lower-mac-rail-802.15.4.o [73]
rand                    0x00031b65     0xe0  Code  Gb  rand.o [57]
readAndValidateStoredImage
                        0x00028289    0x144  Code  Lc  ota-storage-simple.o [36]
readCounter             0x000140cd     0xc6  Code  Lc  nvm3.o [62]
readIdentifyTime        0x0003104f     0x18  Code  Lc  identify.o [25]
readNetworkTokens       0x0000930f     0x64  Code  Lc  association.o [73]
readNodeData            0x00009379      0xc  Code  Lc  association.o [73]
readWritePrimitive      0x00030c73     0xb2  Code  Lc  ota-storage-eeprom.o [37]
reallySendVerifyKeyConfirm
                        0x0002e1fd     0x4c  Code  Lc  aps-keys-transient.o [73]
recalculateMacDataPendingBitField
                        0x0001b38d     0x8a  Code  Lc  indirect-queue.o [73]
receivedTimeoutResponse
                        0x2000f8c8      0x1  Data  Gb  child-handling.o [73]
recordServerEuiAndGoToNextState
                        0x00022e6d     0xac  Code  Lc  ota-client.o [32]
recordUpgradeStatus     0x00023071     0x24  Code  Lc  ota-client.o [32]
recyclePendingAckedMessages
                        0x00025bf1     0x46  Code  Lc  aps-retry.o [73]
reenqueueStoreAndForwardSubmitHead
                        0x0002afa5     0x52  Code  Lc  store-forward.o [73]
reenqueueSubmitHead     0x0001b7e9     0x72  Code  Lc  retry.o [73]
region_nbr              0x2000b62c      0x4  Data  Lc  sl_mpu.o [21]
rejoinMode              0x20009eea      0x1  Data  Lc  aps-security.o [73]
removeConfiguration     0x0000cdfb     0x70  Code  Lc  reporting.o [39]
removeConfigurationAndScheduleTick
                        0x0000ce71      0xc  Code  Lc  reporting.o [39]
removeFromBuffer        0x000156a5     0x30  Code  Lc  network.o [73]
repackFirstPage         0x00013c69     0x94  Code  Lc  nvm3.o [62]
repackFirstPageCallback
                        0x00013bf1     0x72  Code  Lc  nvm3.o [62]
repackFirstPageScanCacheCallback
                        0x00013b4f     0xa2  Code  Lc  nvm3.o [62]
repackWorker            0x00013e45     0xb4  Code  Lc  nvm3.o [62]
reportTableActiveLength
                        0x2000ff00      0x2  Data  Lc  reporting.o [39]
requestKeyBuffer        0x2000ff32      0x2  Data  Lc  trust-center-util.o [73]
requirement_em_table    0x2000ff08      0x2  Data  Lc  sl_power_manager.o [21]
requirement_high_accuracy_hf_clock_counter
                        0x2000ff75      0x1  Data  Gb  sl_power_manager.o [21]
requirement_on_em1_added
                        0x2000ff7a      0x1  Data  Lc  sl_power_manager.o [21]
resetRejoiningNeighborsFC
                        0x20009ef5      0x1  Data  Lc  neighbor.o [73]
responseTimeoutRemaining
                        0x2000f8c9      0x1  Data  Gb  child-handling.o [73]
restartServerDiscoveryAfterDelay
                        0x00022df5     0x12  Code  Lc  ota-client.o [32]
retryCurrentMessageInUpdateTcLinkKey
                        0x0001e8c3     0x3a  Code  Gb  aps-keys.o [73]
retrySendReport         0x0000c62d     0x12  Code  Lc  reporting.o [39]
reverse                 0x00028e47      0x8  Code  Gb  ikk-command.o [4]
reverse                 0x0002703b      0x8  Code  Lc  ikk-opt-tunnel.o [4]
rhoActive               0x2000a3ac      0x1  Data  Lc  lower-mac-rail-802.15.4.o [73]
routeRequestId          0x2000ffea      0x1  Data  Lc  route-discovery.o [73]
routeTableTimer         0x2000ff38      0x1  Data  Lc  route-table.o [73]
routingShortcutThreshold
                        0x20009ef4      0x1  Data  Lc  neighbor.o [73]
rtccClkGet              0x00012c17      0xa  Code  Lc  em_cmu.o [17]
rttDownBuffer           0x2000d2e8    0x100  Data  Gb  ikk-rtt.o [5]
rttUpBuffer             0x2000d1e8    0x100  Data  Gb  ikk-rtt.o [5]
runEventHandler         0x00025e23    0x15c  Code  Lc  aps-retry.o [73]
rxCallback              0x00021ddd     0x58  Code  Lc  com.o [41]
rxCallback              0x000291d1     0x50  Code  Lc  mfglib.o [65]
rxMic                   0x2000bcb0      0x4  Data  Lc  ccm-star.o [9]
rxNextBuffer            0x00021e35     0x42  Code  Lc  com.o [41]
samePage                0x00012e19     0x16  Code  Lc  nvm3.o [62]
saveNetwork             0x00020ea9     0x5c  Code  Lc  form-and-join.o [19]
savedAssertInfo         0x2000bb20      0x8  Data  Lc  cstartup-common.o [14]
savedResetCause         0x2000ff0e      0x2  Data  Lc  cstartup-common.o [14]
scanDataCache           0x2000f8ea      0x2  Data  Gb  zigbee-scan.o [73]
scanPage                0x00012f1b     0x38  Code  Lc  nvm3.o [62]
scanRequestHeader       0x2000fc00      0x2  Data  Lc  zdo-channel.o [73]
scanResults             0x2000fc02      0x2  Data  Lc  zdo-channel.o [73]
scanResultsHandler      0x00025471     0x36  Code  Lc  network-steering.o [28]
scanTableAddDefaultConfigs
                        0x00022aeb     0xa0  Code  Lc  reporting-default-configuration.o [39]
scan_dwell              0x00009c21     0x18  Code  Lc  scan.o [73]
scansRemaining          0x2000fbf3      0x1  Data  Lc  zdo-channel.o [73]
scheduleIdentifyTick    0x0003107f     0x66  Code  Lc  identify.o [25]
scheduleTick            0x0000cd51     0xaa  Code  Lc  reporting.o [39]
score                   0x0002c7f1      0xc  Code  Lc  neighbor-exchange.o [73]
se_management_acquire   0x00029f53     0x14  Code  Gb  sl_se_management.o [27]
se_management_release   0x00029f67      0x4  Code  Gb  sl_se_management.o [27]
securityAddToAddressCache
                        0x0001f43d     0x7e  Code  Gb  security-address-cache.o [1]
securityAddressCacheInit
                        0x0001f42d     0x10  Code  Gb  security-address-cache.o [1]
seed0                   0x20009e94      0x2  Data  Gb  random.o [1]
seed1                   0x20009e96      0x2  Data  Gb  random.o [1]
send                    0x0000dbd3    0x196  Code  Lc  af-main-common.o [46]
sendAckedUnicast        0x00025f7f    0x132  Code  Lc  aps-retry.o [73]
sendApplicationKeys     0x0001c775     0xcc  Code  Lc  trust-center-util.o [73]
sendFromEui             0x20009bd0      0x8  Data  Lc  application-support.o [73]
sendFromSource          0x20009bcc      0x2  Data  Lc  application-support.o [73]
sendJoinRequest         0x00008403     0x6c  Code  Lc  association.o [73]
sendLeaveCommand        0x00018269     0x96  Code  Lc  leave.o [73]
sendMessage             0x00023383    0x11e  Code  Lc  ota-client.o [32]
sendMessageToVerifyTransientLinkKey
                        0x000196a1     0x7a  Code  Lc  aps-security.o [73]
sendNeighborExchange    0x0002c72d     0xc4  Code  Lc  neighbor-exchange.o [73]
sendNetworkKey          0x0001c4ff     0x10  Code  Lc  trust-center-util.o [73]
sendNwkLeaveAnnounceWithOptions
                        0x20009eed      0x1  Data  Gb  zigbee-device-util.o [73]
sendRejoinRequest       0x00008705    0x114  Code  Lc  association.o [73]
sendToClient            0x000257c1     0x24  Code  Lc  ias-zone-server.o [24]
sendUnknownNetworkCommandResponse
                        0x00016ef7     0x4a  Code  Gb  network.o [73]
sendUpdateDevice        0x00019377     0x56  Code  Lc  aps-security.o [73]
sendZigDevRequestBuffer
                        0x00024c89     0x46  Code  Lc  zigbee-device-library.o [1]
send_frame              0x0000b05b     0x7e  Code  Lc  upper-mac.o [73]
serialPort              0x20009eb0      0x1  Data  Gb  af-main-soc.o [46]
serverEndpoint          0x20009eb7      0x1  Data  Lc  ota-client.o [32]
serverMask              0x2000ff28      0x2  Data  Gb  zigbee-device.o [73]
serverNodeId            0x20009e8a      0x2  Data  Lc  ota-client.o [32]
serviceDiscoveryComplete
                        0x00024e4f     0x70  Code  Lc  service-discovery-common.o [46]
setEdCcaThreshold       0x0001e0c5     0x5e  Code  Lc  lower-mac-rail-802.15.4.o [73]
setInternalFlag         0x0001df5d     0x1c  Code  Lc  lower-mac-rail-802.15.4.o [73]
setInvalid              0x00029cf1     0x12  Code  Lc  nvm3_cache.o [62]
setNonvolatileBinding   0x0000e75f     0x2e  Code  Lc  binding-table.o [48]
setOrOverrideTrustCenterEui64
                        0x0001e525     0x26  Code  Lc  aps-keys.o [73]
setRadioParameters      0x00009167     0x76  Code  Lc  association.o [73]
setTimer                0x00022cf7     0x56  Code  Lc  ota-client.o [32]
setZoneId               0x00025aef      0xc  Code  Lc  ias-zone-server.o [24]
set_comparator_for_next_timer
                        0x0000b9c3     0x3c  Code  Lc  sl_sleeptimer.o [16]
set_lower_mac_address_parameters
                        0x0000acad     0x26  Code  Lc  upper-mac.o [73]
set_lower_mac_radio_parameters
                        0x0000acd3     0x4c  Code  Lc  upper-mac.o [73]
setupDiscoveryData      0x00024e1b     0x34  Code  Lc  service-discovery-common.o [46]
setupSecurity           0x00025555     0x9a  Code  Lc  network-steering.o [28]
setup_report_ias        0x20009ec5      0x1  Data  Lc  ikk-user.o [2]
setup_send_msg          0x2000ffbd      0x1  Data  Lc  ikk-user.o [2]
shift                   0x00011cc9     0x10  Code  Lc  random.o [1]
shortIndirectPool       0x2000fbb8      0x2  Data  Lc  indirect-queue.o [73]
singletonAttributeData  0x2000a3d4     0x7c  Data  Gb  attribute-storage.o [46]
skipOverNotLive         0x000073e5     0x16  Code  Lc  buffer-management.o [73]
sl_app_properties       0x0000d10b      0x2  Code  Wk  startup_efr32mg21.o [60]
sl_energy_scan_result_summary_buffer
                        0x2000fbcc      0x2  Data  Gb  scan.o [73]
sl_go_to_next_channel_decision
                        0x20009de8      0x1  Data  Lc  scan.o [73]
sl_hfxo_manager_init    0x0002edd5     0x40  Code  Gb  sl_hfxo_manager.o [22]
sl_hfxo_manager_init_hardware
                        0x0002edd1      0x4  Code  Gb  sl_hfxo_manager.o [22]
sl_hfxo_manager_irq_handler
                        0x0003424d    0x1ec  Code  Gb  sl_hfxo_manager_hal_s2.o [22]
sl_hfxo_manager_notify_consecutive_failed_startups
                        0x0002eead      0x2  Code  Wk  sl_hfxo_manager.o [22]
sl_mac_active_response_callback
                        0x2000fbe0      0x4  Data  Gb  scan.o [73]
sl_mac_add_child        0x00011dff     0x38  Code  Gb  mac-child.o [73]
sl_mac_add_current_network_to_polling_queue
                        0x00020f65     0x34  Code  Gb  multi-network.o [73]
sl_mac_calibrate_current_channel
                        0x0001d559     0x1c  Code  Gb  lower-mac-rail-802.15.4.o [73]
sl_mac_cancel_poll      0x0000afc9     0x1a  Code  Gb  upper-mac.o [73]
sl_mac_channel          0x00014fb5      0xa  Code  Gb  mac-packet-header.o [73]
sl_mac_check_additional_pending_data
                        0x0001b061     0x66  Code  Gb  indirect-queue.o [73]
sl_mac_check_any_child_flags
                        0x00012191     0x3c  Code  Gb  mac-child.o [73]
sl_mac_child_expecting_jit_message
                        0x0001206b     0x26  Code  Gb  mac-child.o [73]
sl_mac_child_find_long_index
                        0x00011f13     0x54  Code  Gb  mac-child.o [73]
sl_mac_child_has_pending_message
                        0x00012031     0x3a  Code  Gb  mac-child.o [73]
sl_mac_child_id_is_sleepy
                        0x000121cd     0x2c  Code  Gb  mac-child.o [73]
sl_mac_child_id_is_valid
                        0x000121f9     0x12  Code  Gb  mac-child.o [73]
sl_mac_child_index      0x00011f73     0x36  Code  Gb  mac-child.o [73]
sl_mac_child_long_id    0x00011eb1     0x22  Code  Gb  mac-child.o [73]
sl_mac_child_long_index
                        0x00011fa9      0x6  Code  Gb  mac-child.o [73]
sl_mac_child_lookup_eui64_by_id
                        0x00011faf     0x22  Code  Gb  mac-child.o [73]
sl_mac_child_short_id   0x00011e83     0x2e  Code  Gb  mac-child.o [73]
sl_mac_child_status     0x2000fb44      0x4  Data  Gb  mac-child.o [73]
sl_mac_child_table      0x2000fb40      0x4  Data  Gb  mac-child.o [73]
sl_mac_child_table_init
                        0x00011da5     0x5a  Code  Gb  mac-child.o [73]
sl_mac_child_table_pointers
                        0x2000fb20     0x10  Data  Lc  mac-child.o [73]
sl_mac_child_table_size
                        0x20009ef2      0x1  Data  Gb  mac-child.o [73]
sl_mac_custom_filter_list
                        0x2000f940      0x4  Data  Gb  mac-header.o [73]
sl_mac_dequeue_polling_network
                        0x00020f99     0x30  Code  Gb  multi-network.o [73]
sl_mac_destination      0x00014ee3     0x18  Code  Gb  mac-packet-header.o [73]
sl_mac_destination_mode
                        0x00014ec7     0x1c  Code  Gb  mac-packet-header.o [73]
sl_mac_destination_pointer
                        0x00014f05     0x18  Code  Gb  mac-packet-header.o [73]
sl_mac_energy_response_callback
                        0x2000fbec      0x4  Data  Gb  scan.o [73]
sl_mac_energy_scan      0x00009c95     0x34  Code  Gb  scan.o [73]
sl_mac_find_child_short_id
                        0x00011ed3     0x40  Code  Gb  mac-child.o [73]
sl_mac_flat_field_offset
                        0x0001c93d     0xaa  Code  Gb  mac-flat-header.o [73]
sl_mac_get_bit_duration_us
                        0x0001d4d7     0x20  Code  Gb  lower-mac-rail-802.15.4.o [73]
sl_mac_get_child_info_flags
                        0x000120cd     0x1e  Code  Gb  mac-child.o [73]
sl_mac_get_child_mac_index
                        0x00012099     0x26  Code  Gb  mac-child.o [73]
sl_mac_get_current_radio_network_index
                        0x0000b415     0x10  Code  Gb  upper-mac.o [73]
sl_mac_get_mac_timer    0x0001d555      0x4  Code  Gb  lower-mac-rail-802.15.4.o [73]
sl_mac_get_matching_nwk_index_bitmask
                        0x0000b45f     0x5a  Code  Gb  upper-mac.o [73]
sl_mac_get_nwk_index_matching_pan
                        0x0000b4b9     0x2c  Code  Gb  upper-mac.o [73]
sl_mac_get_nwk_radio_parameters
                        0x0000ada7     0x24  Code  Gb  upper-mac.o [73]
sl_mac_get_pan_id       0x00021355     0x50  Code  Gb  mac-header.o [73]
sl_mac_get_radio_idle_mode
                        0x0000b3eb     0x2a  Code  Gb  upper-mac.o [73]
sl_mac_get_symbol_duration_us
                        0x0001d4b7     0x20  Code  Gb  lower-mac-rail-802.15.4.o [73]
sl_mac_header_mac_info  0x00014e97      0xa  Code  Gb  mac-packet-header.o [73]
sl_mac_header_mac_info_frame_type
                        0x00014ea1      0xe  Code  Gb  mac-packet-header.o [73]
sl_mac_header_outgoing_child_index
                        0x00012009     0x1c  Code  Gb  mac-child.o [73]
sl_mac_header_set_mac_info
                        0x00014e73      0xa  Code  Gb  mac-packet-header.o [73]
sl_mac_header_set_mac_info_bit
                        0x00014e7d     0x1a  Code  Gb  mac-packet-header.o [73]
sl_mac_incoming_pending
                        0x0001d38f      0x8  Code  Gb  lower-mac-rail-802.15.4.o [73]
sl_mac_indirect_check_poll_flags
                        0x0001b1c1    0x16c  Code  Gb  indirect-queue.o [73]
sl_mac_indirect_event   0x2000fbac      0x8  Data  Gb  indirect-queue.o [73]
sl_mac_indirect_event_handler
                        0x0001b185     0x34  Code  Gb  indirect-queue.o [73]
sl_mac_indirect_process_poll
                        0x0001af3f    0x122  Code  Gb  indirect-queue.o [73]
sl_mac_indirect_purge   0x0001b1b9      0x8  Code  Gb  indirect-queue.o [73]
sl_mac_indirect_queue_init
                        0x0001ae49     0x10  Code  Gb  indirect-queue.o [73]
sl_mac_indirect_submit  0x0001ae73     0xb0  Code  Gb  indirect-queue.o [73]
sl_mac_indirect_transmit_complete
                        0x0001b0d1     0xb4  Code  Gb  indirect-queue.o [73]
sl_mac_init             0x0000ab0f     0xaa  Code  Gb  upper-mac.o [73]
sl_mac_is_broadcast_pan
                        0x000212f5     0x60  Code  Gb  mac-header.o [73]
sl_mac_is_data_packet   0x00014eaf     0x18  Code  Gb  mac-packet-header.o [73]
sl_mac_kickstart        0x0000af97      0x8  Code  Gb  upper-mac.o [73]
sl_mac_long_id_data_pending
                        0x0001af23     0x1c  Code  Gb  indirect-queue.o [73]
sl_mac_lower_mac_cancel_symbol_timer
                        0x0001d52b     0x22  Code  Gb  lower-mac-rail-802.15.4.o [73]
sl_mac_lower_mac_channel_is_valid
                        0x0001d48b      0xa  Code  Gb  lower-mac-rail-802.15.4.o [73]
sl_mac_lower_mac_get_radio_channel
                        0x0001d443      0x8  Code  Gb  lower-mac-rail-802.15.4.o [73]
sl_mac_lower_mac_get_radio_power
                        0x0001d42f     0x14  Code  Gb  lower-mac-rail-802.15.4.o [73]
sl_mac_lower_mac_init   0x0001cfb1    0x140  Code  Gb  lower-mac-rail-802.15.4.o [73]
sl_mac_lower_mac_is_expecting_data
                        0x0001d3eb     0x12  Code  Gb  lower-mac-rail-802.15.4.o [73]
sl_mac_lower_mac_is_idle
                        0x0001d3dd      0xe  Code  Gb  lower-mac-rail-802.15.4.o [73]
sl_mac_lower_mac_radio_is_on
                        0x0001e01f     0x12  Code  Gb  lower-mac-rail-802.15.4.o [73]
sl_mac_lower_mac_schedule_symbol_timer
                        0x0001d4ff     0x24  Code  Gb  lower-mac-rail-802.15.4.o [73]
sl_mac_lower_mac_send   0x0001d1f5     0x5c  Code  Gb  lower-mac-rail-802.15.4.o [73]
sl_mac_lower_mac_set_eui64
                        0x0001e003     0x1a  Code  Gb  lower-mac-rail-802.15.4.o [73]
sl_mac_lower_mac_set_node_id
                        0x0001d397     0x18  Code  Gb  lower-mac-rail-802.15.4.o [73]
sl_mac_lower_mac_set_pan_id
                        0x0001d3af     0x18  Code  Gb  lower-mac-rail-802.15.4.o [73]
sl_mac_lower_mac_set_radio_channel
                        0x0001d44b     0x40  Code  Gb  lower-mac-rail-802.15.4.o [73]
sl_mac_lower_mac_set_radio_idle_mode
                        0x0001d3fd     0x1a  Code  Gb  lower-mac-rail-802.15.4.o [73]
sl_mac_lower_mac_set_radio_power
                        0x0001d417     0x18  Code  Gb  lower-mac-rail-802.15.4.o [73]
sl_mac_lower_mac_tick   0x0001d251    0x134  Code  Gb  lower-mac-rail-802.15.4.o [73]
sl_mac_lqi              0x00014f9f      0xa  Code  Gb  mac-packet-header.o [73]
sl_mac_make_association_request
                        0x00007bad     0x3c  Code  Gb  mac-command.o [73]
sl_mac_make_association_response
                        0x00007be9     0x4a  Code  Gb  mac-command.o [73]
sl_mac_make_beacon      0x00007d99     0xa2  Code  Gb  mac-command.o [73]
sl_mac_make_beacon_request
                        0x00007cf1     0x3a  Code  Gb  mac-command.o [73]
sl_mac_make_command     0x00007a55    0x158  Code  Gb  mac-command.o [73]
sl_mac_make_coordinator_realign
                        0x00007d35     0x5c  Code  Gb  mac-command.o [73]
sl_mac_make_data_message
                        0x00014fed     0x54  Code  Gb  mac-packet-header.o [73]
sl_mac_make_data_request
                        0x00007c33     0x7a  Code  Gb  mac-command.o [73]
sl_mac_make_orphan_notification
                        0x00007cbf     0x32  Code  Gb  mac-command.o [73]
sl_mac_make_raw_message
                        0x00015041     0x4a  Code  Gb  mac-packet-header.o [73]
sl_mac_mark_indirect_buffers
                        0x0001ae59     0x1a  Code  Gb  indirect-queue.o [73]
sl_mac_mark_scan_buffer
                        0x00009d53      0x8  Code  Gb  scan.o [73]
sl_mac_mark_upper_mac_buffers
                        0x0000aae5     0x2a  Code  Gb  upper-mac.o [73]
sl_mac_multi_network_poll_pending
                        0x00020fc9     0x14  Code  Gb  multi-network.o [73]
sl_mac_network_is_active
                        0x0000adcb     0x30  Code  Gb  upper-mac.o [73]
sl_mac_network_poll_queue
                        0x2000ff3e      0x2  Data  Gb  multi-network.o [73]
sl_mac_notify_mac_is_idle
                        0x0000b139      0x4  Code  Gb  upper-mac.o [73]
sl_mac_nwk_index        0x00014f95      0xa  Code  Gb  mac-packet-header.o [73]
sl_mac_nwk_index_for_stack
                        0x20009efc      0x1  Data  Gb  multi-network.o [73]
sl_mac_packet_send_complete_callback
                        0x0000b0d9     0x60  Code  Gb  upper-mac.o [73]
sl_mac_payload_length   0x00015095      0xc  Code  Gb  mac-packet-header.o [73]
sl_mac_payload_pointer  0x0001508b      0xa  Code  Gb  mac-packet-header.o [73]
sl_mac_prepare_transmit
                        0x0000b2f5     0xc8  Code  Gb  upper-mac.o [73]
sl_mac_radio_energy_detection
                        0x0001d49d     0x1a  Code  Gb  lower-mac-rail-802.15.4.o [73]
sl_mac_radio_receive_mac_header_callback
                        0x0002114d    0x19e  Code  Gb  mac-header.o [73]
sl_mac_raw_active_scan  0x00009cfb     0x46  Code  Gb  scan.o [73]
sl_mac_receive_callback
                        0x0000b13d    0x190  Code  Gb  upper-mac.o [73]
sl_mac_remove_child     0x00011e4f     0x34  Code  Gb  mac-child.o [73]
sl_mac_request_poll     0x0000af9f     0x2a  Code  Gb  upper-mac.o [73]
sl_mac_resume_operation
                        0x0000ae2d     0x2e  Code  Gb  upper-mac.o [73]
sl_mac_rssi             0x00014fa9      0xc  Code  Gb  mac-packet-header.o [73]
sl_mac_scan_complete_callback
                        0x2000fbe4      0x4  Data  Gb  scan.o [73]
sl_mac_scan_event       0x2000fbc4      0x8  Data  Gb  scan.o [73]
sl_mac_scan_event_handler
                        0x00009e71     0xfe  Code  Gb  scan.o [73]
sl_mac_scan_pending     0x00009d41     0x12  Code  Gb  scan.o [73]
sl_mac_scan_request_callback
                        0x20009dec      0x4  Data  Gb  scan.o [73]
sl_mac_schedule_symbol_timer
                        0x0000b3c7     0x24  Code  Gb  upper-mac.o [73]
sl_mac_set_child_flag   0x000120f9     0x52  Code  Gb  mac-child.o [73]
sl_mac_set_child_id     0x00011fd1     0x22  Code  Gb  mac-child.o [73]
sl_mac_set_destination  0x00014efb      0xa  Code  Gb  mac-packet-header.o [73]
sl_mac_set_filter_match_list
                        0x00021039      0xe  Code  Gb  mac-header.o [73]
sl_mac_set_lqi          0x00014fc9      0xa  Code  Gb  mac-packet-header.o [73]
sl_mac_set_nwk_radio_parameters
                        0x0000abf1     0xa0  Code  Gb  upper-mac.o [73]
sl_mac_set_rssi         0x00014fd3      0xa  Code  Gb  mac-packet-header.o [73]
sl_mac_set_sleepy_children_flags
                        0x0001214b     0x46  Code  Gb  mac-child.o [73]
sl_mac_set_timestamp    0x00014fe3      0xa  Code  Gb  mac-packet-header.o [73]
sl_mac_source           0x00014f4b     0x16  Code  Gb  mac-packet-header.o [73]
sl_mac_source_mode      0x00014f1d     0x1c  Code  Gb  mac-packet-header.o [73]
sl_mac_source_pointer   0x00014f73     0x16  Code  Gb  mac-packet-header.o [73]
sl_mac_stack_filter_list
                        0x2000f93c      0x4  Data  Gb  mac-header.o [73]
sl_mac_submit           0x0000afe3     0x78  Code  Gb  upper-mac.o [73]
sl_mac_suspend_operation
                        0x0000adfb     0x32  Code  Gb  upper-mac.o [73]
sl_mac_symbol_timer_expired_handler_isr
                        0x0000b2cd     0x28  Code  Gb  upper-mac.o [73]
sl_mac_timestamp        0x00014fbf      0xa  Code  Gb  mac-packet-header.o [73]
sl_mac_upper_mac_is_empty
                        0x0000b425     0x3a  Code  Gb  upper-mac.o [73]
sl_mac_upper_mac_state  0x2000f9a8    0x170  Data  Gb  upper-mac.o [73]
sl_mbedtls_init         0x0003881f      0x4  Code  Gb  sl_mbedtls.o [27]
sl_mpu_disable_execute_from_ram
                        0x0002ed27     0x66  Code  Gb  sl_mpu.o [21]
sl_next_channel         0x2000fbbe      0x1  Data  Lc  scan.o [73]
sl_power_manager_init   0x00021825     0x58  Code  Gb  sl_power_manager.o [21]
sl_power_manager_is_ok_to_sleep
                        0x00021bd1      0x4  Code  Wk  sl_power_manager.o [21]
sl_power_manager_sleep  0x0002187d    0x102  Code  Gb  sl_power_manager.o [21]
sl_power_manager_sleep_on_isr_exit
                        0x0002f685      0x4  Code  Wk  sl_power_manager.o [21]
sl_power_manager_subscribe_em_transition_event
                        0x000219e7     0x16  Code  Gb  sl_power_manager.o [21]
sl_scan_channel_mask    0x2000fbd8      0x4  Data  Lc  scan.o [73]
sl_scan_duration        0x2000fbbf      0x1  Data  Lc  scan.o [73]
sl_scan_frame_counter   0x2000fbd4      0x4  Data  Lc  scan.o [73]
sl_scan_timer_handler   0x00009fa9     0x7a  Code  Gb  scan.o [73]
sl_scan_transmit_retries
                        0x2000fbc0      0x1  Data  Lc  scan.o [73]
sl_scan_type            0x2000fbbd      0x1  Data  Lc  scan.o [73]
sl_se_init              0x00031c45      0x4  Code  Gb  sl_se_manager.o [27]
sl_sleeptimer_get_remaining_time_of_first_timer
                        0x0000b6eb     0x50  Code  Gb  sl_sleeptimer.o [16]
sl_sleeptimer_get_tick_count
                        0x0000b749     0x18  Code  Gb  sl_sleeptimer.o [16]
sl_sleeptimer_get_tick_count64
                        0x0000b761     0x2e  Code  Gb  sl_sleeptimer.o [16]
sl_sleeptimer_get_timer_frequency
                        0x0000b795      0x8  Code  Gb  sl_sleeptimer.o [16]
sl_sleeptimer_get_timer_time_remaining
                        0x0000b681     0x6a  Code  Gb  sl_sleeptimer.o [16]
sl_sleeptimer_init      0x0000b515     0x60  Code  Gb  sl_sleeptimer.o [16]
sl_sleeptimer_is_timer_running
                        0x0000b649     0x30  Code  Gb  sl_sleeptimer.o [16]
sl_sleeptimer_ms32_to_tick
                        0x0000b79d     0x2a  Code  Gb  sl_sleeptimer.o [16]
sl_sleeptimer_restart_timer
                        0x0000b5a3     0x1c  Code  Gb  sl_sleeptimer.o [16]
sl_sleeptimer_restart_timer_ms
                        0x00005a21     0x14  Code  Lc  system-timer.o [60]
sl_sleeptimer_start_timer
                        0x0000b575     0x2e  Code  Gb  sl_sleeptimer.o [16]
sl_sleeptimer_start_timer_ms
                        0x00005a0d     0x14  Code  Lc  system-timer.o [60]
sl_sleeptimer_stop_timer
                        0x0000b5f7     0x4a  Code  Gb  sl_sleeptimer.o [16]
sl_sleeptimer_tick64_to_ms
                        0x0000b7ff     0x52  Code  Gb  sl_sleeptimer.o [16]
sl_sleeptimer_tick_to_ms
                        0x0000b7c7     0x38  Code  Gb  sl_sleeptimer.o [16]
sl_slist_init           0x0002f46d      0x6  Code  Gb  sl_slist.o [21]
sl_slist_push           0x0002f473      0x4  Code  Gb  sl_slist.o [21]
sl_zll_scan_attempts    0x20009eef      0x1  Data  Lc  zigbee-scan.o [73]
sleepTimerInterruptOccurred
                        0x2000f898      0x1  Data  Lc  system-timer.o [60]
sleep_on_isr_exit       0x2000ff87      0x1  Data  Lc  sl_sleeptimer.o [16]
sleeptimer_frequency    0x2000b654      0x4  Data  Lc  sl_power_manager.o [21]
sleeptimer_hal_disable_int
                        0x00021493     0x28  Code  Gb  sl_sleeptimer_hal_rtcc.o [16]
sleeptimer_hal_enable_int
                        0x00021479     0x1a  Code  Gb  sl_sleeptimer_hal_rtcc.o [16]
sleeptimer_hal_get_counter
                        0x00021423      0xc  Code  Gb  sl_sleeptimer_hal_rtcc.o [16]
sleeptimer_hal_get_timer_frequency
                        0x00021535     0x16  Code  Gb  sl_sleeptimer_hal_rtcc.o [16]
sleeptimer_hal_init_timer
                        0x000213b9     0x6a  Code  Gb  sl_sleeptimer_hal_rtcc.o [16]
sleeptimer_hal_set_compare
                        0x0002142f     0x4a  Code  Gb  sl_sleeptimer_hal_rtcc.o [16]
sleepyBroadcastInfo     0x2000f978      0x1  Data  Lc  jit.o [73]
sleepy_xtal_settings_corebias
                        0x20009974      0x4  Data  Lc  sl_hfxo_manager_hal_s2.o [22]
sleepy_xtal_settings_ctuneana
                        0x20009970      0x4  Data  Lc  sl_hfxo_manager_hal_s2.o [22]
sli_build_zll_scan_request_payload
                        0x00007a4f      0x4  Code  Gb  zll-stubs.o [75]
sli_hfxo_manager_begin_startup_measurement
                        0x0002ee15     0x12  Code  Gb  sl_hfxo_manager.o [22]
sli_hfxo_manager_end_startup_measurement
                        0x0002ee27     0x5a  Code  Gb  sl_hfxo_manager.o [22]
sli_hfxo_manager_get_startup_time
                        0x0002ee81      0x6  Code  Gb  sl_hfxo_manager.o [22]
sli_hfxo_manager_init_hardware
                        0x0003420d     0x20  Code  Gb  sl_hfxo_manager_hal_s2.o [22]
sli_hfxo_manager_is_hfxo_ready
                        0x0003422d     0x1e  Code  Gb  sl_hfxo_manager_hal_s2.o [22]
sli_hfxo_manager_notify_ready_for_power_manager
                        0x00021b63     0x2e  Code  Gb  sl_power_manager.o [21]
sli_mac_energy_scan     0x00009cc9     0x32  Code  Gb  scan.o [73]
sli_mac_energy_scan_complete_callback
                        0x2000fbe8      0x4  Data  Gb  scan.o [73]
sli_mac_filter_match_check
                        0x00021047    0x104  Code  Gb  mac-header.o [73]
sli_mac_get_current_child_table_network_index
                        0x00012223     0x16  Code  Gb  mac-child.o [73]
sli_mac_init_child_table_pointers
                        0x0001220b     0x18  Code  Gb  mac-child.o [73]
sli_mac_pop_child_table_pointer
                        0x000122a5     0x38  Code  Gb  mac-child.o [73]
sli_mac_push_child_table_pointer
                        0x00012239     0x6c  Code  Gb  mac-child.o [73]
sli_power_manager_apply_em
                        0x0002f5f5     0x2a  Code  Gb  sl_power_manager_hal_s2.o [21]
sli_power_manager_convert_delay_us_to_tick
                        0x00021a07     0x12  Code  Gb  sl_power_manager.o [21]
sli_power_manager_get_default_high_frequency_minimum_offtime
                        0x0002f61f      0x8  Code  Gb  sl_power_manager_hal_s2.o [21]
sli_power_manager_get_wakeup_process_time_overhead
                        0x0002f627     0x1a  Code  Gb  sl_power_manager_hal_s2.o [21]
sli_power_manager_handle_pre_deepsleep_operations
                        0x0002f585      0x8  Code  Gb  sl_power_manager_hal_s2.o [21]
sli_power_manager_init_hardware
                        0x0002f47d     0xae  Code  Gb  sl_power_manager_hal_s2.o [21]
sli_power_manager_is_high_freq_accuracy_clk_ready
                        0x0002f5bb     0x10  Code  Gb  sl_power_manager_hal_s2.o [21]
sli_power_manager_on_wakeup
                        0x0000be25     0x38  Code  Gb  sleep-efm32.o [14]
sli_power_manager_restore_high_freq_accuracy_clk
                        0x0002f58d     0x2e  Code  Gb  sl_power_manager_hal_s2.o [21]
sli_power_manager_restore_states
                        0x0002f5cb     0x2a  Code  Gb  sl_power_manager_hal_s2.o [21]
sli_power_manager_save_states
                        0x0002f52b      0x4  Code  Gb  sl_power_manager_hal_s2.o [21]
sli_power_manager_set_high_accuracy_hf_clock_as_used
                        0x0002f641      0x8  Code  Gb  sl_power_manager_hal_s2.o [21]
sli_power_manager_update_em_requirement
                        0x0002197f     0x68  Code  Gb  sl_power_manager.o [21]
sli_scan_stop           0x00009f6f     0x38  Code  Gb  scan.o [73]
sli_se_lock_acquire     0x00031c49      0x4  Code  Gb  sl_se_manager.o [27]
sli_se_lock_release     0x00031c4d      0x4  Code  Gb  sl_se_manager.o [27]
sli_set_lower_mac_params_to_concurrent_networks
                        0x0000ad1f     0x48  Code  Gb  upper-mac.o [73]
sli_set_lower_mac_params_to_current_network
                        0x0000ad67     0x40  Code  Gb  upper-mac.o [73]
sli_sleeptimer_hal_is_int_status_set
                        0x000214bb     0x1e  Code  Gb  sl_sleeptimer_hal_rtcc.o [16]
sli_sleeptimer_is_power_manager_timer_next_to_expire
                        0x0000b741      0x8  Code  Gb  sl_sleeptimer.o [16]
sli_upper_mac_update_lower_mac_params
                        0x0000ac91     0x1c  Code  Gb  upper-mac.o [73]
sli_zigbee_routeRecordPolicy
                        0x2000ff2e      0x1  Data  Lc  network.o [73]
srand                   0x00031b45     0x20  Code  Gb  srand.o [57]
stackEvents             0x20009b04     0xc8  Data  Gb  zigbee-stack.o [73]
stackTokenInfo          0x00017ad4     0x3c  Data  Lc  token-cache.o [73]
startNetworkOperation   0x00007ff9     0x6e  Code  Lc  association.o [73]
startPanIdScan          0x00020cb9     0x52  Code  Lc  form-and-join.o [19]
startScan               0x00020f51     0x12  Code  Lc  form-and-join.o [19]
startServerDiscovery    0x00022fe3     0x68  Code  Lc  ota-client.o [32]
start_channel_scan      0x0000a037     0x6c  Code  Lc  scan.o [73]
stateMachineRun         0x00025503     0x52  Code  Lc  network-steering.o [28]
stateTable              0x2000b5cc      0x4  Data  Lc  identify.o [25]
states                  0x2000aa04     0x40  Data  Lc  service-discovery-common.o [46]
statesInitialized       0x2000ff47      0x1  Data  Lc  service-discovery-common.o [46]
staticCmd               0x000391bc     0x20  Data  Lc  util.o [46]
status                  0x000239d1     0x10  Code  Lc  call-command-handler.o [1]
storageHasFullImage     0x2000ff57      0x1  Data  Lc  ota-storage-simple.o [36]
storageSlot             0x2000b678      0x4  Data  Lc  bootloader-interface-app.o [18]
storeAndForwardDelayCount
                        0x2000fc04      0x1  Data  Lc  store-forward.o [73]
storeAndForwardSubmitCount
                        0x2000fc05      0x1  Data  Lc  store-forward.o [73]
storedKeysList          0x2000f8e0      0x2  Data  Lc  aps-keys-transient.o [73]
storedNetworks          0x2000ff06      0x2  Data  Lc  network-steering-soc.o [28]
storedSleepControl      0x2000ff56      0x1  Data  Lc  ota-storage-eeprom-page-erase.o [37]
stringToUnsignedInt     0x0001f8bd     0x7a  Code  Lc  command-interpreter2.o [1]
strlen                  0x00028985           Code  Gb  strlen.o [69]
submitCount             0x2000fb6d      0x1  Data  Lc  retry.o [73]
superRetriesIntervalForMacDataPoll
                        0x2000f99c      0x4  Data  Lc  network.o [73]
syn_area                0x2000ffbe      0x1  Data  Gb  ikk-user.o [2]
syn_ex                  0x2000ffc1      0x1  Data  Gb  ikk-user.o [2]
syn_fin                 0x2000ffc2      0x1  Data  Gb  ikk-user.o [2]
syn_hold                0x2000ffbf      0x1  Data  Gb  ikk-user.o [2]
syn_led                 0x2000ffc0      0x1  Data  Gb  ikk-user.o [2]
systemTimerId           0x2000f89c     0x18  Data  Lc  system-timer.o [60]
tail                    0x2000ff52      0x1  Data  Lc  scan-dispatch.o [40]
tcBasedClassificationAlgorithm
                        0x0000a963     0x62  Code  Lc  beacon-handling.o [73]
tempdrvHighCallbacks    0x2000ba90     0x28  Data  Lc  tempdrv.o [16]
tempdrvLowCallbacks     0x2000bab8     0x28  Data  Lc  tempdrv.o [16]
terminateScanRequest    0x00032225     0x18  Code  Lc  zdo-channel.o [73]
thrHard                 0x00012d8b     0x20  Code  Lc  nvm3.o [62]
thrSize                 0x00012dd9      0xa  Code  Lc  nvm3.o [62]
thrSoftMinimum          0x00012dab     0x20  Code  Lc  nvm3.o [62]
thrSoftUser             0x00012dcb      0xe  Code  Lc  nvm3.o [62]
timeElapsed             0x2000ff8a      0x1  Data  Lc  ustimer.o [16]
timeoutPools            0x0001b417    0x10c  Code  Lc  indirect-queue.o [73]
timerPrsConfig          0x0002167d     0x3a  Code  Lc  em_timer.o [17]
timer_frequency         0x2000ba80      0x4  Data  Lc  sl_sleeptimer.o [16]
timer_head              0x2000ba84      0x4  Data  Lc  sl_sleeptimer.o [16]
tokenArraySize          0x0003dd98     0x3c  Data  Gb  token-def.o [1]
tokenDefaults           0x0003e048     0xe8  Data  Gb  token-def.o [1]
tokenFlagsToSizeArray   0x0002de3c      0x4  Data  Lc  install-code-tokens.o [61]
tokenIsCnt              0x0003dce4     0x3c  Data  Gb  token-def.o [1]
tokenIsIdx              0x0003dd20     0x3c  Data  Gb  token-def.o [1]
tokenLength             0x0001f50d      0xe  Code  Lc  command-interpreter2.o [1]
tokenNvm3Keys           0x0003dbfc     0xe8  Data  Gb  token-def.o [1]
tokenPointer            0x0001f51b     0x10  Code  Lc  command-interpreter2.o [1]
tokenSize               0x0003dd5c     0x3c  Data  Gb  token-def.o [1]
tokensActive            0x2000ff8c      0x1  Data  Lc  token.o [14]
tolower                 0x00031b39      0xc  Code  Gb  tolower.o [57]
totalImageSize          0x2000ae8c      0x4  Data  Lc  ota-client.o [32]
traceClkGet             0x000125f3     0x30  Code  Lc  em_cmu.o [17]
tracePhase              0x2000f7a4      0x1  Data  Lc  buffer-management.o [73]
transientKeyFinish      0x0002e0d9     0x38  Code  Lc  aps-keys-transient.o [73]
transportKeyFrameSizes  0x0002c578      0x8  Data  Lc  packet-validate.o [68]
tryNextMethod           0x000254a7     0x2c  Code  Lc  network-steering.o [28]
tryToJoinNetwork        0x00025277     0x8c  Code  Gb  network-steering.o [28]
tryTxCurrentPacket      0x0001e16b     0x5e  Code  Lc  lower-mac-rail-802.15.4.o [73]
txBuffer                0x00021d1d     0x42  Code  Lc  com.o [41]
txCallback              0x00021edd     0x46  Code  Lc  com.o [41]
txCatchUp               0x00021e77     0x66  Code  Lc  com.o [41]
txCompleteStatusPending
                        0x20009bde      0x1  Data  Lc  lower-mac-rail-802.15.4.o [73]
txCompleted             0x0001df17     0x1a  Code  Lc  lower-mac-rail-802.15.4.o [73]
txCurrentPacket         0x0001de73     0x96  Code  Lc  lower-mac-rail-802.15.4.o [73]
txFailedCallback        0x0001d5f1     0x72  Code  Lc  lower-mac-rail-802.15.4.o [73]
txSchedulerInfo         0x20009be0      0xc  Data  Lc  lower-mac-rail-802.15.4.o [73]
tx_complete_callback    0x00009c39     0x42  Code  Lc  scan.o [73]
typeSensitiveMemCopy    0x00004c91     0x76  Code  Lc  attribute-storage.o [46]
uart_recv_flag          0x20009ec6      0x1  Data  Lc  ikk-user.o [2]
uartdrvHandle           0x2000bb08     0x10  Data  Lc  uartdrv.o [16]
uartdrvHandleIsInitialized
                        0x2000ff89      0x1  Data  Lc  uartdrv.o [16]
uarthandledata          0x2000ad40     0x78  Data  Lc  com.o [41]
unicastHead             0x2000ffec      0x1  Data  Lc  unicast-table.o [73]
uninitializedIsr        0x00038791           Code  Gb  faults-v7m.o [14]
unsolicitedChannelReport
                        0x2000fbf2      0x1  Data  Lc  zdo-channel.o [73]
unusedOriginalChannelMaskCache
                        0x2000f8fc      0x4  Data  Lc  zigbee-scan.o [73]
unusedPanIdCache        0x2000f8ec      0x2  Data  Lc  zigbee-scan.o [73]
updateBuffer            0x00021ced     0x30  Code  Lc  com.o [41]
updateCurrentOffset     0x00022e2f     0x18  Code  Lc  ota-client.o [32]
updateDownloadFileVersion
                        0x00022e47      0x8  Code  Lc  ota-client.o [32]
updateEnrollState       0x0002592b     0x12  Code  Lc  ias-zone-server.o [24]
updateEvents            0x0001cf5d     0x54  Code  Lc  lower-mac-rail-802.15.4.o [73]
updateInterrupts        0x0002ef1b     0x94  Code  Lc  tempdrv.o [16]
updateTcLinkKeyState    0x2000ffe3      0x1  Data  Lc  aps-keys.o [73]
update_em1_requirement  0x00021af9     0x12  Code  Lc  sl_power_manager.o [21]
update_first_timer_delta
                        0x0000b9ff     0x24  Code  Lc  sl_sleeptimer.o [16]
upgradeEndResponseParse
                        0x00023877     0xbc  Code  Lc  ota-client.o [32]
useLegacyTimeoutMethod  0x2000ffe0      0x1  Data  Gb  child-handling.o [73]
usePageRequest          0x2000ff5e      0x1  Data  Lc  ota-client.o [32]
userData                0x2000f7bc      0x4  Data  Lc  buffer-management.o [73]
userDataCount           0x2000f7aa      0x2  Data  Lc  buffer-management.o [73]
vFillBuffer             0x0000c08d    0x170  Code  Lc  client-api.o [46]
validateObj             0x00013793     0x26  Code  Lc  nvm3.o [62]
validateObjFragments    0x0001356b    0x228  Code  Lc  nvm3.o [62]
waitStateMax            0x00012c29      0xe  Code  Lc  em_cmu.o [17]
waitingForResponse      0x2000ff5d      0x1  Data  Lc  ota-client.o [32]
wakeInfo                0x2000bb30      0x4  Data  Lc  sleep-efm32.o [14]
wakeup_time_config_overhead_tick
                        0x2000b650      0x4  Data  Gb  sl_power_manager.o [21]
walkDelayQueue          0x0001b569     0xd2  Code  Lc  retry.o [73]
walkStoreAndForwardQueue
                        0x0002ae55    0x112  Code  Lc  store-forward.o [73]
watchdogDisableInSleep  0x2000ff8b      0x1  Data  Lc  sleep-efm32.o [14]
wdog0ClkGet             0x00012c39     0x3c  Code  Lc  em_cmu.o [17]
wdog1ClkGet             0x00012625     0x40  Code  Lc  em_cmu.o [17]
wordSize                0x2000ff8e      0x1  Data  Lc  eeprom.o [13]
workBegin               0x00014495     0x16  Code  Lc  nvm3.o [62]
workEnd                 0x000144ab     0x14  Code  Lc  nvm3.o [62]
writeBurst              0x200094a5     0x52  Code  Gb  em_msc.o [17]
writeFullAllowed        0x00012de3     0x18  Code  Lc  nvm3.o [62]
writeIdentifyTime       0x00031067     0x18  Code  Lc  identify.o [25]
writeMessage            0x000209a7     0xaa  Code  Lc  legacy-packet-buffer.o [73]
writeObj                0x00012f83    0x2da  Code  Lc  nvm3.o [62]
xferCfg                 0x00039ac8     0x10  Data  Gb  dmadrv.o [16]
zclBufferAddBuffer      0x00031a09     0x1e  Code  Gb  zcl-cli.o [46]
zclBufferAddByte        0x000319e5     0x12  Code  Gb  zcl-cli.o [46]
zclBufferAddWord        0x000319f7     0x12  Code  Gb  zcl-cli.o [46]
zclBufferSetup          0x00031991     0x54  Code  Gb  zcl-cli.o [46]
zclCmdIsBuilt           0x2000ff4e      0x1  Data  Gb  zcl-cli.o [46]
zdoConfigurationModeEnabled
                        0x20009eec      0x1  Data  Gb  zigbee-device-util.o [73]
zigDevApsStruct         0x2000f8b8      0x4  Data  Lc  zigbee-device-util.o [73]
zigDevRequestRadius     0x20009ee2      0x1  Data  Gb  zigbee-device-common.o [1]
zigDevRequestSequence   0x2000ffd7      0x1  Data  Lc  zigbee-device-common.o [1]
zigDevRequestSequence   0x2000f8b4      0x1  Data  Lc  zigbee-device-util.o [73]
zigbeeMacFilterList     0x0003feea      0x2  Data  Gb  ember-configuration.o [1]
zllActiveScanCompleteHandler
                        0x00005853     0x16  Code  Lc  zigbee-scan.o [73]
zll_channel_stay        0x000056c7     0x2e  Code  Gb  zigbee-scan.o [73]
zll_scan_request_callback
                        0x000056f5     0xa8  Code  Lc  zigbee-scan.o [73]


[1] = D:\simplicity studio5\s5\KKHumanBody\IAR ARM - Default
[2] = D:\simplicity studio5\s5\KKHumanBody\IAR ARM - Default\00ikonke-app
[3] = D:\simplicity studio5\s5\KKHumanBody\IAR ARM - Default\00ikonke-app\driver
[4] = D:\simplicity studio5\s5\KKHumanBody\IAR ARM - Default\00ikonke-app\general
[5] = D:\simplicity studio5\s5\KKHumanBody\IAR ARM - Default\00ikonke-app\tools
[6] = D:\simplicity studio5\s5\KKHumanBody\IAR ARM - Default\address-table
[7] = D:\simplicity studio5\s5\KKHumanBody\IAR ARM - Default\antenna-stub
[8] = D:\simplicity studio5\s5\KKHumanBody\IAR ARM - Default\basic
[9] = D:\simplicity studio5\s5\KKHumanBody\IAR ARM - Default\ccm-encryption
[10] = D:\simplicity studio5\s5\KKHumanBody\IAR ARM - Default\coexistence-stub\EFR32
[11] = D:\simplicity studio5\s5\KKHumanBody\IAR ARM - Default\counters
[12] = D:\simplicity studio5\s5\KKHumanBody\IAR ARM - Default\diagnostic-server
[13] = D:\simplicity studio5\s5\KKHumanBody\IAR ARM - Default\eeprom
[14] = D:\simplicity studio5\s5\KKHumanBody\IAR ARM - Default\efr32
[15] = D:\simplicity studio5\s5\KKHumanBody\IAR ARM - Default\ember-minimal-printf
[16] = D:\simplicity studio5\s5\KKHumanBody\IAR ARM - Default\emdrv
[17] = D:\simplicity studio5\s5\KKHumanBody\IAR ARM - Default\emlib
[18] = D:\simplicity studio5\s5\KKHumanBody\IAR ARM - Default\external-generated-files
[19] = D:\simplicity studio5\s5\KKHumanBody\IAR ARM - Default\form-and-join
[20] = D:\simplicity studio5\s5\KKHumanBody\IAR ARM - Default\generic-interrupt-control\EFR32
[21] = D:\simplicity studio5\s5\KKHumanBody\IAR ARM - Default\hal-library\EFR32
[22] = D:\simplicity studio5\s5\KKHumanBody\IAR ARM - Default\hal-library\EFR32_2
[23] = D:\simplicity studio5\s5\KKHumanBody\IAR ARM - Default\heartbeat
[24] = D:\simplicity studio5\s5\KKHumanBody\IAR ARM - Default\ias-zone-server
[25] = D:\simplicity studio5\s5\KKHumanBody\IAR ARM - Default\identify
[26] = D:\simplicity studio5\s5\KKHumanBody\IAR ARM - Default\idle-sleep
[27] = D:\simplicity studio5\s5\KKHumanBody\IAR ARM - Default\mbedtls\EFR32
[28] = D:\simplicity studio5\s5\KKHumanBody\IAR ARM - Default\network-steering
[29] = D:\simplicity studio5\s5\KKHumanBody\IAR ARM - Default\nvm3
[30] = D:\simplicity studio5\s5\KKHumanBody\IAR ARM - Default\nvm3\EFR32
[31] = D:\simplicity studio5\s5\KKHumanBody\IAR ARM - Default\ota-bootload
[32] = D:\simplicity studio5\s5\KKHumanBody\IAR ARM - Default\ota-client
[33] = D:\simplicity studio5\s5\KKHumanBody\IAR ARM - Default\ota-client-policy
[34] = D:\simplicity studio5\s5\KKHumanBody\IAR ARM - Default\ota-common
[35] = D:\simplicity studio5\s5\KKHumanBody\IAR ARM - Default\ota-storage-common
[36] = D:\simplicity studio5\s5\KKHumanBody\IAR ARM - Default\ota-storage-simple
[37] = D:\simplicity studio5\s5\KKHumanBody\IAR ARM - Default\ota-storage-simple-eeprom
[38] = D:\simplicity studio5\s5\KKHumanBody\IAR ARM - Default\packet-handoff
[39] = D:\simplicity studio5\s5\KKHumanBody\IAR ARM - Default\reporting
[40] = D:\simplicity studio5\s5\KKHumanBody\IAR ARM - Default\scan-dispatch
[41] = D:\simplicity studio5\s5\KKHumanBody\IAR ARM - Default\serial
[42] = D:\simplicity studio5\s5\KKHumanBody\IAR ARM - Default\serial\EFR32
[43] = D:\simplicity studio5\s5\KKHumanBody\IAR ARM - Default\simple-main
[44] = D:\simplicity studio5\s5\KKHumanBody\IAR ARM - Default\strong-random
[45] = D:\simplicity studio5\s5\KKHumanBody\IAR ARM - Default\update-tc-link-key
[46] = D:\simplicity studio5\s5\KKHumanBody\IAR ARM - Default\zcl-framework-core
[47] = command line
[48] = binding-table-library.a
[49] = cbke-163k1-stub-library.a
[50] = cbke-283k1-stub-library.a
[51] = cbke-library-dsa-sign-stub.a
[52] = cbke-library-dsa-verify-283k1-stub.a
[53] = cbke-library-dsa-verify-stub.a
[54] = cbke-stub-library.a
[55] = debug-basic-stub-library.a
[56] = debug-extended-stub-library.a
[57] = dl7M_tln.a
[58] = end-device-bind-stub-library.a
[59] = gp-stub-library.a
[60] = hal-library.a
[61] = install-code-library.a
[62] = libnvm3_CM33_iar.a
[63] = librail_efr32xg21_iar_release.a
[64] = m7M_tls.a
[65] = mfglib-library.a
[66] = multi-network-stub-library.a
[67] = multi-pan-stub-library.a
[68] = packet-validate-library.a
[69] = rt7M_tl.a
[70] = security-library-link-keys-stub.a
[71] = sim-eeprom2-to-nvm3-upgrade-stub-library.a
[72] = source-route-stub-library.a
[73] = zigbee-pro-stack.a
[74] = zigbee-r22-support-stub-library.a
[75] = zll-stub-library.a

  214 178 bytes of readonly  code memory
      324 bytes of readwrite code memory
   32 247 bytes of readonly  data memory
  474 294 bytes of readwrite data memory

Errors: none
Warnings: 1
